
Exjobb.elf:     file format elf32-littlearm

Sections:
Idx Name          Size      VMA       LMA       File off  Algn
  0 .text         00003edc  00080000  00080000  00010000  2**3
                  CONTENTS, ALLOC, LOAD, READONLY, CODE
  1 .relocate     00000844  20070000  00083edc  00020000  2**3
                  CONTENTS, ALLOC, LOAD, DATA
  2 .bss          0000049c  20070844  00084720  00020844  2**2
                  ALLOC
  3 .stack        00002000  20070ce0  00084bbc  00020844  2**0
                  ALLOC
  4 .ARM.attributes 00000029  00000000  00000000  00020844  2**0
                  CONTENTS, READONLY
  5 .comment      00000059  00000000  00000000  0002086d  2**0
                  CONTENTS, READONLY
  6 .debug_info   0001ae5a  00000000  00000000  000208c6  2**0
                  CONTENTS, READONLY, DEBUGGING
  7 .debug_abbrev 0000414e  00000000  00000000  0003b720  2**0
                  CONTENTS, READONLY, DEBUGGING
  8 .debug_loc    0000bdcf  00000000  00000000  0003f86e  2**0
                  CONTENTS, READONLY, DEBUGGING
  9 .debug_aranges 00000e18  00000000  00000000  0004b63d  2**0
                  CONTENTS, READONLY, DEBUGGING
 10 .debug_ranges 00000c08  00000000  00000000  0004c455  2**0
                  CONTENTS, READONLY, DEBUGGING
 11 .debug_macro  0000cc5e  00000000  00000000  0004d05d  2**0
                  CONTENTS, READONLY, DEBUGGING
 12 .debug_line   0001b925  00000000  00000000  00059cbb  2**0
                  CONTENTS, READONLY, DEBUGGING
 13 .debug_str    0006305a  00000000  00000000  000755e0  2**0
                  CONTENTS, READONLY, DEBUGGING
 14 .debug_frame  000023cc  00000000  00000000  000d863c  2**2
                  CONTENTS, READONLY, DEBUGGING

Disassembly of section .text:

00080000 <_sfixed>:
   80000:	20072ce0 	.word	0x20072ce0
   80004:	00082119 	.word	0x00082119
   80008:	00082115 	.word	0x00082115
   8000c:	00082115 	.word	0x00082115
   80010:	00082115 	.word	0x00082115
   80014:	00082115 	.word	0x00082115
   80018:	00082115 	.word	0x00082115
	...
   8002c:	00082115 	.word	0x00082115
   80030:	00082115 	.word	0x00082115
   80034:	00000000 	.word	0x00000000
   80038:	00082115 	.word	0x00082115
   8003c:	00082115 	.word	0x00082115
   80040:	00082115 	.word	0x00082115
   80044:	00082115 	.word	0x00082115
   80048:	00082115 	.word	0x00082115
   8004c:	00082115 	.word	0x00082115
   80050:	00082115 	.word	0x00082115
   80054:	00082115 	.word	0x00082115
   80058:	00082115 	.word	0x00082115
   8005c:	00082115 	.word	0x00082115
   80060:	00082115 	.word	0x00082115
   80064:	00082115 	.word	0x00082115
   80068:	00000000 	.word	0x00000000
   8006c:	00081f85 	.word	0x00081f85
   80070:	00081f99 	.word	0x00081f99
   80074:	00081fad 	.word	0x00081fad
   80078:	00081fc1 	.word	0x00081fc1
	...
   80084:	00082115 	.word	0x00082115
   80088:	00082115 	.word	0x00082115
   8008c:	00082115 	.word	0x00082115
   80090:	00082115 	.word	0x00082115
   80094:	00082115 	.word	0x00082115
   80098:	00082115 	.word	0x00082115
   8009c:	00082115 	.word	0x00082115
   800a0:	00082115 	.word	0x00082115
   800a4:	00000000 	.word	0x00000000
   800a8:	00082115 	.word	0x00082115
   800ac:	00080579 	.word	0x00080579
   800b0:	00082115 	.word	0x00082115
   800b4:	00082115 	.word	0x00082115
   800b8:	00082115 	.word	0x00082115
   800bc:	00082115 	.word	0x00082115
   800c0:	00082115 	.word	0x00082115
   800c4:	00082115 	.word	0x00082115
   800c8:	00082115 	.word	0x00082115
   800cc:	00082115 	.word	0x00082115
   800d0:	00082115 	.word	0x00082115
   800d4:	00082115 	.word	0x00082115
   800d8:	00082115 	.word	0x00082115
   800dc:	00082115 	.word	0x00082115
   800e0:	00082115 	.word	0x00082115
   800e4:	00082115 	.word	0x00082115
   800e8:	00082115 	.word	0x00082115
   800ec:	00082115 	.word	0x00082115
   800f0:	00082115 	.word	0x00082115

000800f4 <__do_global_dtors_aux>:
   800f4:	b510      	push	{r4, lr}
   800f6:	4c05      	ldr	r4, [pc, #20]	; (8010c <__do_global_dtors_aux+0x18>)
   800f8:	7823      	ldrb	r3, [r4, #0]
   800fa:	b933      	cbnz	r3, 8010a <__do_global_dtors_aux+0x16>
   800fc:	4b04      	ldr	r3, [pc, #16]	; (80110 <__do_global_dtors_aux+0x1c>)
   800fe:	b113      	cbz	r3, 80106 <__do_global_dtors_aux+0x12>
   80100:	4804      	ldr	r0, [pc, #16]	; (80114 <__do_global_dtors_aux+0x20>)
   80102:	f3af 8000 	nop.w
   80106:	2301      	movs	r3, #1
   80108:	7023      	strb	r3, [r4, #0]
   8010a:	bd10      	pop	{r4, pc}
   8010c:	20070844 	.word	0x20070844
   80110:	00000000 	.word	0x00000000
   80114:	00083edc 	.word	0x00083edc

00080118 <frame_dummy>:
   80118:	4b08      	ldr	r3, [pc, #32]	; (8013c <frame_dummy+0x24>)
   8011a:	b510      	push	{r4, lr}
   8011c:	b11b      	cbz	r3, 80126 <frame_dummy+0xe>
   8011e:	4908      	ldr	r1, [pc, #32]	; (80140 <frame_dummy+0x28>)
   80120:	4808      	ldr	r0, [pc, #32]	; (80144 <frame_dummy+0x2c>)
   80122:	f3af 8000 	nop.w
   80126:	4808      	ldr	r0, [pc, #32]	; (80148 <frame_dummy+0x30>)
   80128:	6803      	ldr	r3, [r0, #0]
   8012a:	b903      	cbnz	r3, 8012e <frame_dummy+0x16>
   8012c:	bd10      	pop	{r4, pc}
   8012e:	4b07      	ldr	r3, [pc, #28]	; (8014c <frame_dummy+0x34>)
   80130:	2b00      	cmp	r3, #0
   80132:	d0fb      	beq.n	8012c <frame_dummy+0x14>
   80134:	e8bd 4010 	ldmia.w	sp!, {r4, lr}
   80138:	4718      	bx	r3
   8013a:	bf00      	nop
   8013c:	00000000 	.word	0x00000000
   80140:	20070848 	.word	0x20070848
   80144:	00083edc 	.word	0x00083edc
   80148:	00083edc 	.word	0x00083edc
   8014c:	00000000 	.word	0x00000000

00080150 <_read>:
int __attribute__((weak))
_read (int file, char * ptr, int len)
{
	int nChars = 0;

	if (file != 0) {
   80150:	b990      	cbnz	r0, 80178 <_read+0x28>
int __attribute__((weak))
_read (int file, char * ptr, int len); // Remove GCC compiler warning

int __attribute__((weak))
_read (int file, char * ptr, int len)
{
   80152:	e92d 41f0 	stmdb	sp!, {r4, r5, r6, r7, r8, lr}
   80156:	460c      	mov	r4, r1
   80158:	4690      	mov	r8, r2

	if (file != 0) {
		return -1;
	}

	for (; len > 0; --len) {
   8015a:	2a00      	cmp	r2, #0
   8015c:	dd0f      	ble.n	8017e <_read+0x2e>
   8015e:	188f      	adds	r7, r1, r2
		ptr_get(stdio_base, ptr);
   80160:	4e08      	ldr	r6, [pc, #32]	; (80184 <_read+0x34>)
   80162:	4d09      	ldr	r5, [pc, #36]	; (80188 <_read+0x38>)
   80164:	6830      	ldr	r0, [r6, #0]
   80166:	4621      	mov	r1, r4
   80168:	682b      	ldr	r3, [r5, #0]
   8016a:	4798      	blx	r3
		ptr++;
   8016c:	3401      	adds	r4, #1

	if (file != 0) {
		return -1;
	}

	for (; len > 0; --len) {
   8016e:	42a7      	cmp	r7, r4
   80170:	d1f8      	bne.n	80164 <_read+0x14>
		ptr_get(stdio_base, ptr);
		ptr++;
		nChars++;
   80172:	4640      	mov	r0, r8
   80174:	e8bd 81f0 	ldmia.w	sp!, {r4, r5, r6, r7, r8, pc}
_read (int file, char * ptr, int len)
{
	int nChars = 0;

	if (file != 0) {
		return -1;
   80178:	f04f 30ff 	mov.w	r0, #4294967295
		ptr_get(stdio_base, ptr);
		ptr++;
		nChars++;
	}
	return nChars;
}
   8017c:	4770      	bx	lr

	if (file != 0) {
		return -1;
	}

	for (; len > 0; --len) {
   8017e:	2000      	movs	r0, #0
		ptr_get(stdio_base, ptr);
		ptr++;
		nChars++;
	}
	return nChars;
}
   80180:	e8bd 81f0 	ldmia.w	sp!, {r4, r5, r6, r7, r8, pc}
   80184:	20070cd0 	.word	0x20070cd0
   80188:	20070cc8 	.word	0x20070cc8

0008018c <_write>:
int __attribute__((weak))
_write (int file, const char *ptr, int len)
{
	int nChars = 0;

	if ((file != 1) && (file != 2) && (file!=3)) {
   8018c:	3801      	subs	r0, #1
   8018e:	2802      	cmp	r0, #2
   80190:	d815      	bhi.n	801be <_write+0x32>
int __attribute__((weak))
_write (int file, const char *ptr, int len);

int __attribute__((weak))
_write (int file, const char *ptr, int len)
{
   80192:	e92d 41f0 	stmdb	sp!, {r4, r5, r6, r7, r8, lr}
   80196:	460e      	mov	r6, r1
   80198:	4614      	mov	r4, r2

	if ((file != 1) && (file != 2) && (file!=3)) {
		return -1;
	}

	for (; len != 0; --len) {
   8019a:	b19a      	cbz	r2, 801c4 <_write+0x38>
   8019c:	460d      	mov	r5, r1
		if (ptr_put(stdio_base, *ptr++) < 0) {
   8019e:	f8df 8038 	ldr.w	r8, [pc, #56]	; 801d8 <_write+0x4c>
   801a2:	4f0c      	ldr	r7, [pc, #48]	; (801d4 <_write+0x48>)
   801a4:	f8d8 0000 	ldr.w	r0, [r8]
   801a8:	f815 1b01 	ldrb.w	r1, [r5], #1
   801ac:	683b      	ldr	r3, [r7, #0]
   801ae:	4798      	blx	r3
   801b0:	2800      	cmp	r0, #0
   801b2:	db0a      	blt.n	801ca <_write+0x3e>
   801b4:	1ba8      	subs	r0, r5, r6

	if ((file != 1) && (file != 2) && (file!=3)) {
		return -1;
	}

	for (; len != 0; --len) {
   801b6:	3c01      	subs	r4, #1
   801b8:	d1f4      	bne.n	801a4 <_write+0x18>
   801ba:	e8bd 81f0 	ldmia.w	sp!, {r4, r5, r6, r7, r8, pc}
_write (int file, const char *ptr, int len)
{
	int nChars = 0;

	if ((file != 1) && (file != 2) && (file!=3)) {
		return -1;
   801be:	f04f 30ff 	mov.w	r0, #4294967295
			return -1;
		}
		++nChars;
	}
	return nChars;
}
   801c2:	4770      	bx	lr

	if ((file != 1) && (file != 2) && (file!=3)) {
		return -1;
	}

	for (; len != 0; --len) {
   801c4:	2000      	movs	r0, #0
   801c6:	e8bd 81f0 	ldmia.w	sp!, {r4, r5, r6, r7, r8, pc}
		if (ptr_put(stdio_base, *ptr++) < 0) {
			return -1;
   801ca:	f04f 30ff 	mov.w	r0, #4294967295
		}
		++nChars;
	}
	return nChars;
}
   801ce:	e8bd 81f0 	ldmia.w	sp!, {r4, r5, r6, r7, r8, pc}
   801d2:	bf00      	nop
   801d4:	20070ccc 	.word	0x20070ccc
   801d8:	20070cd0 	.word	0x20070cd0

000801dc <adc_init>:
 *
 * \return 0 on success.
 */
uint32_t adc_init(Adc *p_adc, const uint32_t ul_mck,
		const uint32_t ul_adc_clock, const enum adc_startup_time startup)
{
   801dc:	b430      	push	{r4, r5}
	uint32_t ul_prescal;

	/*  Reset the controller. */
	p_adc->ADC_CR = ADC_CR_SWRST;
   801de:	2401      	movs	r4, #1
   801e0:	6004      	str	r4, [r0, #0]

	/* Reset Mode Register. */
	p_adc->ADC_MR = 0;
   801e2:	2500      	movs	r5, #0
   801e4:	6045      	str	r5, [r0, #4]

	/* Reset PDC transfer. */
	p_adc->ADC_PTCR = (ADC_PTCR_RXTDIS | ADC_PTCR_TXTDIS);
   801e6:	f240 2402 	movw	r4, #514	; 0x202
   801ea:	f8c0 4120 	str.w	r4, [r0, #288]	; 0x120
	p_adc->ADC_RCR = 0;
   801ee:	f8c0 5104 	str.w	r5, [r0, #260]	; 0x104
	p_adc->ADC_RNCR = 0;
   801f2:	f8c0 5114 	str.w	r5, [r0, #276]	; 0x114

	ul_prescal = ul_mck / (2 * ul_adc_clock) - 1;
	p_adc->ADC_MR |= ADC_MR_PRESCAL(ul_prescal) | startup;
   801f6:	6844      	ldr	r4, [r0, #4]
   801f8:	0052      	lsls	r2, r2, #1
   801fa:	fbb1 f1f2 	udiv	r1, r1, r2
   801fe:	1e4a      	subs	r2, r1, #1
   80200:	0212      	lsls	r2, r2, #8
   80202:	b292      	uxth	r2, r2
   80204:	4323      	orrs	r3, r4
   80206:	431a      	orrs	r2, r3
   80208:	6042      	str	r2, [r0, #4]
	return 0;
}
   8020a:	4628      	mov	r0, r5
   8020c:	bc30      	pop	{r4, r5}
   8020e:	4770      	bx	lr

00080210 <adc_set_resolution>:
 * \param resolution ADC resolution.
 *
 */
void adc_set_resolution(Adc *p_adc,const enum adc_resolution_t resolution)
{
	p_adc->ADC_MR |= (resolution << 4) & ADC_MR_LOWRES;
   80210:	6843      	ldr	r3, [r0, #4]
   80212:	0109      	lsls	r1, r1, #4
   80214:	f001 0110 	and.w	r1, r1, #16
   80218:	430b      	orrs	r3, r1
   8021a:	6043      	str	r3, [r0, #4]
   8021c:	4770      	bx	lr
   8021e:	bf00      	nop

00080220 <adc_configure_trigger>:
 *
 */
void adc_configure_trigger(Adc *p_adc, const enum adc_trigger_t trigger,
		uint8_t uc_freerun)
{
	p_adc->ADC_MR |= trigger | ((uc_freerun << 7) & ADC_MR_FREERUN);
   80220:	6843      	ldr	r3, [r0, #4]
   80222:	01d2      	lsls	r2, r2, #7
   80224:	b2d2      	uxtb	r2, r2
   80226:	4319      	orrs	r1, r3
   80228:	4311      	orrs	r1, r2
   8022a:	6041      	str	r1, [r0, #4]
   8022c:	4770      	bx	lr
   8022e:	bf00      	nop

00080230 <adc_configure_timing>:
 * \param uc_settling Analog settling time = (uc_settling + 1) / ADC clock.
 * \param uc_transfer Data transfer time = (uc_transfer * 2 + 3) / ADC clock.
 */
void adc_configure_timing(Adc *p_adc, const uint8_t uc_tracking,
		const enum adc_settling_time_t settling,const uint8_t uc_transfer)
{
   80230:	b410      	push	{r4}
	p_adc->ADC_MR |= ADC_MR_TRANSFER(uc_transfer)
   80232:	6844      	ldr	r4, [r0, #4]
   80234:	0609      	lsls	r1, r1, #24
   80236:	f001 6170 	and.w	r1, r1, #251658240	; 0xf000000
   8023a:	4322      	orrs	r2, r4
   8023c:	430a      	orrs	r2, r1
   8023e:	071b      	lsls	r3, r3, #28
   80240:	f003 5340 	and.w	r3, r3, #805306368	; 0x30000000
   80244:	4313      	orrs	r3, r2
   80246:	6043      	str	r3, [r0, #4]
			| settling | ADC_MR_TRACKTIM(uc_tracking);
}
   80248:	bc10      	pop	{r4}
   8024a:	4770      	bx	lr

0008024c <adc_start>:
 * \param p_adc Pointer to an ADC instance.
 */

void adc_start(Adc *p_adc)
{
	p_adc->ADC_CR = ADC_CR_START;
   8024c:	2302      	movs	r3, #2
   8024e:	6003      	str	r3, [r0, #0]
   80250:	4770      	bx	lr
   80252:	bf00      	nop

00080254 <adc_enable_channel>:
 * \param p_adc Pointer to an ADC instance.
 * \param adc_ch ADC channel number.
 */
void adc_enable_channel(Adc *p_adc, const enum adc_channel_num_t adc_ch)
{
	p_adc->ADC_CHER = 1 << adc_ch;
   80254:	2301      	movs	r3, #1
   80256:	fa03 f101 	lsl.w	r1, r3, r1
   8025a:	6101      	str	r1, [r0, #16]
   8025c:	4770      	bx	lr
   8025e:	bf00      	nop

00080260 <adc_get_channel_value>:
 */
uint32_t adc_get_channel_value(const Adc *p_adc, const enum adc_channel_num_t adc_ch)
{
	uint32_t ul_data = 0;

	if (15 >= adc_ch) {
   80260:	290f      	cmp	r1, #15
		ul_data = *(p_adc->ADC_CDR + adc_ch);
   80262:	bf9a      	itte	ls
   80264:	3050      	addls	r0, #80	; 0x50
   80266:	f850 0021 	ldrls.w	r0, [r0, r1, lsl #2]
 *
 * \return ADC value of the specified channel.
 */
uint32_t adc_get_channel_value(const Adc *p_adc, const enum adc_channel_num_t adc_ch)
{
	uint32_t ul_data = 0;
   8026a:	2000      	movhi	r0, #0
	if (15 >= adc_ch) {
		ul_data = *(p_adc->ADC_CDR + adc_ch);
	}

	return ul_data;
}
   8026c:	4770      	bx	lr
   8026e:	bf00      	nop

00080270 <adc_get_status>:
 *
 * \return ADC status structure.
 */
uint32_t adc_get_status(const Adc *p_adc)
{
	return p_adc->ADC_ISR;
   80270:	6b00      	ldr	r0, [r0, #48]	; 0x30
}
   80272:	4770      	bx	lr

00080274 <uart_init>:
 *
 * \retval 0 Success.
 * \retval 1 Bad baud rate generator value.
 */
uint32_t uart_init(Uart *p_uart, const sam_uart_opt_t *p_uart_opt)
{
   80274:	b410      	push	{r4}
	uint32_t cd = 0;

	/* Reset and disable receiver & transmitter */
	p_uart->UART_CR = UART_CR_RSTRX | UART_CR_RSTTX
   80276:	23ac      	movs	r3, #172	; 0xac
   80278:	6003      	str	r3, [r0, #0]
			| UART_CR_RXDIS | UART_CR_TXDIS;

	/* Check and configure baudrate */
	/* Asynchronous, no oversampling */
	cd = (p_uart_opt->ul_mck / p_uart_opt->ul_baudrate) / UART_MCK_DIV;
   8027a:	680b      	ldr	r3, [r1, #0]
   8027c:	684a      	ldr	r2, [r1, #4]
   8027e:	fbb3 f3f2 	udiv	r3, r3, r2
   80282:	091b      	lsrs	r3, r3, #4
	if (cd < UART_MCK_DIV_MIN_FACTOR || cd > UART_MCK_DIV_MAX_FACTOR)
   80284:	1e5c      	subs	r4, r3, #1
   80286:	f64f 72fe 	movw	r2, #65534	; 0xfffe
   8028a:	4294      	cmp	r4, r2
   8028c:	d80a      	bhi.n	802a4 <uart_init+0x30>
		return 1;

	p_uart->UART_BRGR = cd;
   8028e:	6203      	str	r3, [r0, #32]
	/* Configure mode */
	p_uart->UART_MR = p_uart_opt->ul_mode;
   80290:	688b      	ldr	r3, [r1, #8]
   80292:	6043      	str	r3, [r0, #4]

#if (!SAMV71 && !SAMV70 && !SAME70 && !SAMS70)
	/* Disable PDC channel */
	p_uart->UART_PTCR = UART_PTCR_RXTDIS | UART_PTCR_TXTDIS;
   80294:	f240 2302 	movw	r3, #514	; 0x202
   80298:	f8c0 3120 	str.w	r3, [r0, #288]	; 0x120
#endif

	/* Enable receiver and transmitter */
	p_uart->UART_CR = UART_CR_RXEN | UART_CR_TXEN;
   8029c:	2350      	movs	r3, #80	; 0x50
   8029e:	6003      	str	r3, [r0, #0]

	return 0;
   802a0:	2000      	movs	r0, #0
   802a2:	e000      	b.n	802a6 <uart_init+0x32>

	/* Check and configure baudrate */
	/* Asynchronous, no oversampling */
	cd = (p_uart_opt->ul_mck / p_uart_opt->ul_baudrate) / UART_MCK_DIV;
	if (cd < UART_MCK_DIV_MIN_FACTOR || cd > UART_MCK_DIV_MAX_FACTOR)
		return 1;
   802a4:	2001      	movs	r0, #1

	/* Enable receiver and transmitter */
	p_uart->UART_CR = UART_CR_RXEN | UART_CR_TXEN;

	return 0;
}
   802a6:	bc10      	pop	{r4}
   802a8:	4770      	bx	lr
   802aa:	bf00      	nop

000802ac <uart_write>:
 * \retval 1 I/O Failure, UART is not ready.
 */
uint32_t uart_write(Uart *p_uart, const uint8_t uc_data)
{
	/* Check if the transmitter is ready */
	if (!(p_uart->UART_SR & UART_SR_TXRDY))
   802ac:	6943      	ldr	r3, [r0, #20]
   802ae:	f013 0f02 	tst.w	r3, #2
		return 1;

	/* Send character */
	p_uart->UART_THR = uc_data;
   802b2:	bf1a      	itte	ne
   802b4:	61c1      	strne	r1, [r0, #28]
	return 0;
   802b6:	2000      	movne	r0, #0
 */
uint32_t uart_write(Uart *p_uart, const uint8_t uc_data)
{
	/* Check if the transmitter is ready */
	if (!(p_uart->UART_SR & UART_SR_TXRDY))
		return 1;
   802b8:	2001      	moveq	r0, #1

	/* Send character */
	p_uart->UART_THR = uc_data;
	return 0;
}
   802ba:	4770      	bx	lr

000802bc <uart_read>:
 * \retval 1 I/O Failure, UART is not ready.
 */
uint32_t uart_read(Uart *p_uart, uint8_t *puc_data)
{
	/* Check if the receiver is ready */
	if ((p_uart->UART_SR & UART_SR_RXRDY) == 0)
   802bc:	6943      	ldr	r3, [r0, #20]
   802be:	f013 0f01 	tst.w	r3, #1
		return 1;

	/* Read character */
	*puc_data = (uint8_t) p_uart->UART_RHR;
   802c2:	bf1d      	ittte	ne
   802c4:	6983      	ldrne	r3, [r0, #24]
   802c6:	700b      	strbne	r3, [r1, #0]
	return 0;
   802c8:	2000      	movne	r0, #0
 */
uint32_t uart_read(Uart *p_uart, uint8_t *puc_data)
{
	/* Check if the receiver is ready */
	if ((p_uart->UART_SR & UART_SR_RXRDY) == 0)
		return 1;
   802ca:	2001      	moveq	r0, #1

	/* Read character */
	*puc_data = (uint8_t) p_uart->UART_RHR;
	return 0;
}
   802cc:	4770      	bx	lr
   802ce:	bf00      	nop

000802d0 <usart_write>:
 * \retval 0 on success.
 * \retval 1 on failure.
 */
uint32_t usart_write(Usart *p_usart, uint32_t c)
{
	if (!(p_usart->US_CSR & US_CSR_TXRDY)) {
   802d0:	6943      	ldr	r3, [r0, #20]
   802d2:	f013 0f02 	tst.w	r3, #2
		return 1;
	}

	p_usart->US_THR = US_THR_TXCHR(c);
   802d6:	bf1d      	ittte	ne
   802d8:	f3c1 0108 	ubfxne	r1, r1, #0, #9
   802dc:	61c1      	strne	r1, [r0, #28]
	return 0;
   802de:	2000      	movne	r0, #0
 * \retval 1 on failure.
 */
uint32_t usart_write(Usart *p_usart, uint32_t c)
{
	if (!(p_usart->US_CSR & US_CSR_TXRDY)) {
		return 1;
   802e0:	2001      	moveq	r0, #1
	}

	p_usart->US_THR = US_THR_TXCHR(c);
	return 0;
}
   802e2:	4770      	bx	lr

000802e4 <usart_read>:
 * \retval 0 on success.
 * \retval 1 if no data is available or errors.
 */
uint32_t usart_read(Usart *p_usart, uint32_t *c)
{
	if (!(p_usart->US_CSR & US_CSR_RXRDY)) {
   802e4:	6943      	ldr	r3, [r0, #20]
   802e6:	f013 0f01 	tst.w	r3, #1
   802ea:	d005      	beq.n	802f8 <usart_read+0x14>
		return 1;
	}

	/* Read character */
	*c = p_usart->US_RHR & US_RHR_RXCHR_Msk;
   802ec:	6983      	ldr	r3, [r0, #24]
   802ee:	f3c3 0308 	ubfx	r3, r3, #0, #9
   802f2:	600b      	str	r3, [r1, #0]

	return 0;
   802f4:	2000      	movs	r0, #0
   802f6:	4770      	bx	lr
 * \retval 1 if no data is available or errors.
 */
uint32_t usart_read(Usart *p_usart, uint32_t *c)
{
	if (!(p_usart->US_CSR & US_CSR_RXRDY)) {
		return 1;
   802f8:	2001      	movs	r0, #1

	/* Read character */
	*c = p_usart->US_RHR & US_RHR_RXCHR_Msk;

	return 0;
}
   802fa:	4770      	bx	lr

000802fc <delayInit>:

#include "asf.h"
#include "DelayFunctions.h"

int delayInit(void)		/* Initializes the timer used for delays */
{
   802fc:	b510      	push	{r4, lr}
	pmc_enable_periph_clk(ID_TC7);	/* power on the peripheral clock for timers */
   802fe:	2022      	movs	r0, #34	; 0x22
   80300:	4b08      	ldr	r3, [pc, #32]	; (80324 <delayInit+0x28>)
   80302:	4798      	blx	r3
	tc_init(TC2,1,0);				/* TC0, channel 0, TCLK1 och capturemode */
   80304:	4c08      	ldr	r4, [pc, #32]	; (80328 <delayInit+0x2c>)
   80306:	2200      	movs	r2, #0
   80308:	2101      	movs	r1, #1
   8030a:	4620      	mov	r0, r4
   8030c:	4b07      	ldr	r3, [pc, #28]	; (8032c <delayInit+0x30>)
   8030e:	4798      	blx	r3
	tc_set_block_mode(TC2,1);
   80310:	2101      	movs	r1, #1
   80312:	4620      	mov	r0, r4
   80314:	4b06      	ldr	r3, [pc, #24]	; (80330 <delayInit+0x34>)
   80316:	4798      	blx	r3
	tc_stop(TC2,1);					/* making sure the timer does not run  */
   80318:	2101      	movs	r1, #1
   8031a:	4620      	mov	r0, r4
   8031c:	4b05      	ldr	r3, [pc, #20]	; (80334 <delayInit+0x38>)
   8031e:	4798      	blx	r3
	return 0;						/* evertyhing is ok, typical response */
}
   80320:	2000      	movs	r0, #0
   80322:	bd10      	pop	{r4, pc}
   80324:	000820c1 	.word	0x000820c1
   80328:	40088000 	.word	0x40088000
   8032c:	00081675 	.word	0x00081675
   80330:	0008168d 	.word	0x0008168d
   80334:	0008169d 	.word	0x0008169d

00080338 <delayMicroseconds>:


void delayMicroseconds(uint32_t us)		/* A simple implementation for a delay in us (not calibrated) */
{
   80338:	b5f8      	push	{r3, r4, r5, r6, r7, lr}
   8033a:	4604      	mov	r4, r0
	tc_start(TC2,1);
   8033c:	2101      	movs	r1, #1
   8033e:	4809      	ldr	r0, [pc, #36]	; (80364 <delayMicroseconds+0x2c>)
   80340:	4b09      	ldr	r3, [pc, #36]	; (80368 <delayMicroseconds+0x30>)
   80342:	4798      	blx	r3
	while (tc_read_cv(TC2,1) < us*42);
   80344:	232a      	movs	r3, #42	; 0x2a
   80346:	fb03 f404 	mul.w	r4, r3, r4
   8034a:	4f06      	ldr	r7, [pc, #24]	; (80364 <delayMicroseconds+0x2c>)
   8034c:	2601      	movs	r6, #1
   8034e:	4d07      	ldr	r5, [pc, #28]	; (8036c <delayMicroseconds+0x34>)
   80350:	4631      	mov	r1, r6
   80352:	4638      	mov	r0, r7
   80354:	47a8      	blx	r5
   80356:	42a0      	cmp	r0, r4
   80358:	d3fa      	bcc.n	80350 <delayMicroseconds+0x18>
	tc_stop(TC2,1);
   8035a:	2101      	movs	r1, #1
   8035c:	4801      	ldr	r0, [pc, #4]	; (80364 <delayMicroseconds+0x2c>)
   8035e:	4b04      	ldr	r3, [pc, #16]	; (80370 <delayMicroseconds+0x38>)
   80360:	4798      	blx	r3
   80362:	bdf8      	pop	{r3, r4, r5, r6, r7, pc}
   80364:	40088000 	.word	0x40088000
   80368:	00081695 	.word	0x00081695
   8036c:	000816a5 	.word	0x000816a5
   80370:	0008169d 	.word	0x0008169d

00080374 <modifyOutPut>:


//Modifierar filtervärdet man har fått ut av filtret baserat på potentiometer
uint32_t modifyOutPut(uint32_t filtervalue,uint32_t analogValue){

	if(analogValue <= 819){
   80374:	f5b1 7f4d 	cmp.w	r1, #820	; 0x334
   80378:	d320      	bcc.n	803bc <modifyOutPut+0x48>
		return 0;
		}else if((analogValue >819)&&(analogValue<=1638)){
   8037a:	f5a1 724d 	sub.w	r2, r1, #820	; 0x334
   8037e:	f240 3332 	movw	r3, #818	; 0x332
   80382:	429a      	cmp	r2, r3
   80384:	d801      	bhi.n	8038a <modifyOutPut+0x16>
		return (filtervalue/4);
   80386:	0880      	lsrs	r0, r0, #2
   80388:	4770      	bx	lr
		}else if((analogValue>1638)&&(analogValue<=2457)){
   8038a:	f2a1 6267 	subw	r2, r1, #1639	; 0x667
   8038e:	f240 3332 	movw	r3, #818	; 0x332
   80392:	429a      	cmp	r2, r3
   80394:	d801      	bhi.n	8039a <modifyOutPut+0x26>
		return (filtervalue/2);
   80396:	0840      	lsrs	r0, r0, #1
   80398:	4770      	bx	lr
		}else if((analogValue>2457)&&(analogValue<3276)){
   8039a:	f6a1 129a 	subw	r2, r1, #2458	; 0x99a
   8039e:	f240 3331 	movw	r3, #817	; 0x331
   803a2:	429a      	cmp	r2, r3
   803a4:	d803      	bhi.n	803ae <modifyOutPut+0x3a>
		return ((filtervalue*3)/4);
   803a6:	eb00 0040 	add.w	r0, r0, r0, lsl #1
   803aa:	0880      	lsrs	r0, r0, #2
   803ac:	4770      	bx	lr
		}else if((analogValue>3276)&&(analogValue<4095)){
   803ae:	f6a1 41cd 	subw	r1, r1, #3277	; 0xccd
   803b2:	f240 3331 	movw	r3, #817	; 0x331
   803b6:	4299      	cmp	r1, r3
   803b8:	d901      	bls.n	803be <modifyOutPut+0x4a>
		return filtervalue;
	}
}
   803ba:	4770      	bx	lr

//Modifierar filtervärdet man har fått ut av filtret baserat på potentiometer
uint32_t modifyOutPut(uint32_t filtervalue,uint32_t analogValue){

	if(analogValue <= 819){
		return 0;
   803bc:	2000      	movs	r0, #0
		}else if((analogValue>2457)&&(analogValue<3276)){
		return ((filtervalue*3)/4);
		}else if((analogValue>3276)&&(analogValue<4095)){
		return filtervalue;
	}
}
   803be:	4770      	bx	lr

000803c0 <MovingFilterfrekvens>:

uint32_t MovingFilterfrekvens(uint32_t analogmovingfilter,uint32_t invalue){
   803c0:	b508      	push	{r3, lr}
	if(analogmovingfilter<=683){
   803c2:	f5b0 7f2b 	cmp.w	r0, #684	; 0x2ac
   803c6:	d20a      	bcs.n	803de <MovingFilterfrekvens+0x1e>
		sampelfrekvens = 2100;
   803c8:	f640 0234 	movw	r2, #2100	; 0x834
   803cc:	4b2e      	ldr	r3, [pc, #184]	; (80488 <MovingFilterfrekvens+0xc8>)
   803ce:	601a      	str	r2, [r3, #0]
		numberofband = 49;
   803d0:	2231      	movs	r2, #49	; 0x31
   803d2:	4b2e      	ldr	r3, [pc, #184]	; (8048c <MovingFilterfrekvens+0xcc>)
   803d4:	601a      	str	r2, [r3, #0]
		return movingFilter1(invalue);
   803d6:	4608      	mov	r0, r1
   803d8:	4b2d      	ldr	r3, [pc, #180]	; (80490 <MovingFilterfrekvens+0xd0>)
   803da:	4798      	blx	r3
   803dc:	bd08      	pop	{r3, pc}
	}else if(analogmovingfilter>683 && analogmovingfilter<=1365){
   803de:	f5a0 722b 	sub.w	r2, r0, #684	; 0x2ac
   803e2:	f240 23a9 	movw	r3, #681	; 0x2a9
   803e6:	429a      	cmp	r2, r3
   803e8:	d80a      	bhi.n	80400 <MovingFilterfrekvens+0x40>
		sampelfrekvens = 1050;
   803ea:	f240 421a 	movw	r2, #1050	; 0x41a
   803ee:	4b26      	ldr	r3, [pc, #152]	; (80488 <MovingFilterfrekvens+0xc8>)
   803f0:	601a      	str	r2, [r3, #0]
		numberofband = 49;
   803f2:	2231      	movs	r2, #49	; 0x31
   803f4:	4b25      	ldr	r3, [pc, #148]	; (8048c <MovingFilterfrekvens+0xcc>)
   803f6:	601a      	str	r2, [r3, #0]
		return movingFilter1(invalue);
   803f8:	4608      	mov	r0, r1
   803fa:	4b25      	ldr	r3, [pc, #148]	; (80490 <MovingFilterfrekvens+0xd0>)
   803fc:	4798      	blx	r3
   803fe:	bd08      	pop	{r3, pc}
	}else if(analogmovingfilter>1365 && analogmovingfilter <=2048){
   80400:	f2a0 5256 	subw	r2, r0, #1366	; 0x556
   80404:	f240 23aa 	movw	r3, #682	; 0x2aa
   80408:	429a      	cmp	r2, r3
   8040a:	d80a      	bhi.n	80422 <MovingFilterfrekvens+0x62>
		sampelfrekvens = 2100;
   8040c:	f640 0234 	movw	r2, #2100	; 0x834
   80410:	4b1d      	ldr	r3, [pc, #116]	; (80488 <MovingFilterfrekvens+0xc8>)
   80412:	601a      	str	r2, [r3, #0]
		numberofband = 50;
   80414:	2232      	movs	r2, #50	; 0x32
   80416:	4b1d      	ldr	r3, [pc, #116]	; (8048c <MovingFilterfrekvens+0xcc>)
   80418:	601a      	str	r2, [r3, #0]
		return movingFilter2(invalue);
   8041a:	4608      	mov	r0, r1
   8041c:	4b1d      	ldr	r3, [pc, #116]	; (80494 <MovingFilterfrekvens+0xd4>)
   8041e:	4798      	blx	r3
   80420:	bd08      	pop	{r3, pc}
	}else if(analogmovingfilter>2048 && analogmovingfilter <= 2731){
   80422:	f6a0 0201 	subw	r2, r0, #2049	; 0x801
   80426:	f240 23aa 	movw	r3, #682	; 0x2aa
   8042a:	429a      	cmp	r2, r3
   8042c:	d80a      	bhi.n	80444 <MovingFilterfrekvens+0x84>
		sampelfrekvens = 1050;
   8042e:	f240 421a 	movw	r2, #1050	; 0x41a
   80432:	4b15      	ldr	r3, [pc, #84]	; (80488 <MovingFilterfrekvens+0xc8>)
   80434:	601a      	str	r2, [r3, #0]
		numberofband = 50;
   80436:	2232      	movs	r2, #50	; 0x32
   80438:	4b14      	ldr	r3, [pc, #80]	; (8048c <MovingFilterfrekvens+0xcc>)
   8043a:	601a      	str	r2, [r3, #0]
		return movingFilter2(invalue);
   8043c:	4608      	mov	r0, r1
   8043e:	4b15      	ldr	r3, [pc, #84]	; (80494 <MovingFilterfrekvens+0xd4>)
   80440:	4798      	blx	r3
   80442:	bd08      	pop	{r3, pc}
	}else if(analogmovingfilter>2731 && analogmovingfilter<=3414){
   80444:	f6a0 22ac 	subw	r2, r0, #2732	; 0xaac
   80448:	f240 23aa 	movw	r3, #682	; 0x2aa
   8044c:	429a      	cmp	r2, r3
   8044e:	d80a      	bhi.n	80466 <MovingFilterfrekvens+0xa6>
		 sampelfrekvens = 2100;
   80450:	f640 0234 	movw	r2, #2100	; 0x834
   80454:	4b0c      	ldr	r3, [pc, #48]	; (80488 <MovingFilterfrekvens+0xc8>)
   80456:	601a      	str	r2, [r3, #0]
		 numberofband = 51;
   80458:	2233      	movs	r2, #51	; 0x33
   8045a:	4b0c      	ldr	r3, [pc, #48]	; (8048c <MovingFilterfrekvens+0xcc>)
   8045c:	601a      	str	r2, [r3, #0]
		return movingFilter3(invalue);
   8045e:	4608      	mov	r0, r1
   80460:	4b0d      	ldr	r3, [pc, #52]	; (80498 <MovingFilterfrekvens+0xd8>)
   80462:	4798      	blx	r3
   80464:	bd08      	pop	{r3, pc}
	}else if(analogmovingfilter>3414 && analogmovingfilter<=4095){
   80466:	f6a0 5357 	subw	r3, r0, #3415	; 0xd57
   8046a:	f5b3 7f2a 	cmp.w	r3, #680	; 0x2a8
   8046e:	d80a      	bhi.n	80486 <MovingFilterfrekvens+0xc6>
		sampelfrekvens = 1050;
   80470:	f240 421a 	movw	r2, #1050	; 0x41a
   80474:	4b04      	ldr	r3, [pc, #16]	; (80488 <MovingFilterfrekvens+0xc8>)
   80476:	601a      	str	r2, [r3, #0]
		numberofband = 51;
   80478:	2233      	movs	r2, #51	; 0x33
   8047a:	4b04      	ldr	r3, [pc, #16]	; (8048c <MovingFilterfrekvens+0xcc>)
   8047c:	601a      	str	r2, [r3, #0]
		return movingFilter3(invalue);
   8047e:	4608      	mov	r0, r1
   80480:	4b05      	ldr	r3, [pc, #20]	; (80498 <MovingFilterfrekvens+0xd8>)
   80482:	4798      	blx	r3
   80484:	bd08      	pop	{r3, pc}
	}
}
   80486:	bd08      	pop	{r3, pc}
   80488:	20070cd4 	.word	0x20070cd4
   8048c:	20070cd8 	.word	0x20070cd8
   80490:	00080861 	.word	0x00080861
   80494:	000809b9 	.word	0x000809b9
   80498:	00080b11 	.word	0x00080b11

0008049c <MovingFilterfrekvensBandStop>:

uint32_t MovingFilterfrekvensBandStop(uint32_t analogmovingfilter,uint32_t invalue){
   8049c:	b508      	push	{r3, lr}
	if(analogmovingfilter<=683){
   8049e:	f5b0 7f2b 	cmp.w	r0, #684	; 0x2ac
   804a2:	d20a      	bcs.n	804ba <MovingFilterfrekvensBandStop+0x1e>
		sampelfrekvens = 2100;
   804a4:	f640 0234 	movw	r2, #2100	; 0x834
   804a8:	4b2e      	ldr	r3, [pc, #184]	; (80564 <MovingFilterfrekvensBandStop+0xc8>)
   804aa:	601a      	str	r2, [r3, #0]
		numberofband = 49;
   804ac:	2231      	movs	r2, #49	; 0x31
   804ae:	4b2e      	ldr	r3, [pc, #184]	; (80568 <MovingFilterfrekvensBandStop+0xcc>)
   804b0:	601a      	str	r2, [r3, #0]
		return movingFilterBandStop1(invalue);
   804b2:	4608      	mov	r0, r1
   804b4:	4b2d      	ldr	r3, [pc, #180]	; (8056c <MovingFilterfrekvensBandStop+0xd0>)
   804b6:	4798      	blx	r3
   804b8:	bd08      	pop	{r3, pc}
		}else if(analogmovingfilter>683 && analogmovingfilter<=1365){
   804ba:	f5a0 722b 	sub.w	r2, r0, #684	; 0x2ac
   804be:	f240 23a9 	movw	r3, #681	; 0x2a9
   804c2:	429a      	cmp	r2, r3
   804c4:	d80a      	bhi.n	804dc <MovingFilterfrekvensBandStop+0x40>
		sampelfrekvens = 1050;
   804c6:	f240 421a 	movw	r2, #1050	; 0x41a
   804ca:	4b26      	ldr	r3, [pc, #152]	; (80564 <MovingFilterfrekvensBandStop+0xc8>)
   804cc:	601a      	str	r2, [r3, #0]
		numberofband = 49;
   804ce:	2231      	movs	r2, #49	; 0x31
   804d0:	4b25      	ldr	r3, [pc, #148]	; (80568 <MovingFilterfrekvensBandStop+0xcc>)
   804d2:	601a      	str	r2, [r3, #0]
		return movingFilterBandStop1(invalue);
   804d4:	4608      	mov	r0, r1
   804d6:	4b25      	ldr	r3, [pc, #148]	; (8056c <MovingFilterfrekvensBandStop+0xd0>)
   804d8:	4798      	blx	r3
   804da:	bd08      	pop	{r3, pc}
		}else if(analogmovingfilter>1365 && analogmovingfilter <=2048){
   804dc:	f2a0 5256 	subw	r2, r0, #1366	; 0x556
   804e0:	f240 23aa 	movw	r3, #682	; 0x2aa
   804e4:	429a      	cmp	r2, r3
   804e6:	d80a      	bhi.n	804fe <MovingFilterfrekvensBandStop+0x62>
		sampelfrekvens = 2100;
   804e8:	f640 0234 	movw	r2, #2100	; 0x834
   804ec:	4b1d      	ldr	r3, [pc, #116]	; (80564 <MovingFilterfrekvensBandStop+0xc8>)
   804ee:	601a      	str	r2, [r3, #0]
		numberofband = 50;
   804f0:	2232      	movs	r2, #50	; 0x32
   804f2:	4b1d      	ldr	r3, [pc, #116]	; (80568 <MovingFilterfrekvensBandStop+0xcc>)
   804f4:	601a      	str	r2, [r3, #0]
		return movingFilterBandStop2(invalue);
   804f6:	4608      	mov	r0, r1
   804f8:	4b1d      	ldr	r3, [pc, #116]	; (80570 <MovingFilterfrekvensBandStop+0xd4>)
   804fa:	4798      	blx	r3
   804fc:	bd08      	pop	{r3, pc}
		}else if(analogmovingfilter>2048 && analogmovingfilter <= 2731){
   804fe:	f6a0 0201 	subw	r2, r0, #2049	; 0x801
   80502:	f240 23aa 	movw	r3, #682	; 0x2aa
   80506:	429a      	cmp	r2, r3
   80508:	d80a      	bhi.n	80520 <MovingFilterfrekvensBandStop+0x84>
		sampelfrekvens = 1050;
   8050a:	f240 421a 	movw	r2, #1050	; 0x41a
   8050e:	4b15      	ldr	r3, [pc, #84]	; (80564 <MovingFilterfrekvensBandStop+0xc8>)
   80510:	601a      	str	r2, [r3, #0]
		numberofband = 50;
   80512:	2232      	movs	r2, #50	; 0x32
   80514:	4b14      	ldr	r3, [pc, #80]	; (80568 <MovingFilterfrekvensBandStop+0xcc>)
   80516:	601a      	str	r2, [r3, #0]
		return movingFilterBandStop2(invalue);
   80518:	4608      	mov	r0, r1
   8051a:	4b15      	ldr	r3, [pc, #84]	; (80570 <MovingFilterfrekvensBandStop+0xd4>)
   8051c:	4798      	blx	r3
   8051e:	bd08      	pop	{r3, pc}
		}else if(analogmovingfilter>2731 && analogmovingfilter<=3414){
   80520:	f6a0 22ac 	subw	r2, r0, #2732	; 0xaac
   80524:	f240 23aa 	movw	r3, #682	; 0x2aa
   80528:	429a      	cmp	r2, r3
   8052a:	d80a      	bhi.n	80542 <MovingFilterfrekvensBandStop+0xa6>
		sampelfrekvens = 2100;
   8052c:	f640 0234 	movw	r2, #2100	; 0x834
   80530:	4b0c      	ldr	r3, [pc, #48]	; (80564 <MovingFilterfrekvensBandStop+0xc8>)
   80532:	601a      	str	r2, [r3, #0]
		numberofband = 51;
   80534:	2233      	movs	r2, #51	; 0x33
   80536:	4b0c      	ldr	r3, [pc, #48]	; (80568 <MovingFilterfrekvensBandStop+0xcc>)
   80538:	601a      	str	r2, [r3, #0]
		return movingFilterBandStop3(invalue);
   8053a:	4608      	mov	r0, r1
   8053c:	4b0d      	ldr	r3, [pc, #52]	; (80574 <MovingFilterfrekvensBandStop+0xd8>)
   8053e:	4798      	blx	r3
   80540:	bd08      	pop	{r3, pc}
		}else if(analogmovingfilter>3414 && analogmovingfilter<=4095){
   80542:	f6a0 5357 	subw	r3, r0, #3415	; 0xd57
   80546:	f5b3 7f2a 	cmp.w	r3, #680	; 0x2a8
   8054a:	d80a      	bhi.n	80562 <MovingFilterfrekvensBandStop+0xc6>
		sampelfrekvens = 1050;
   8054c:	f240 421a 	movw	r2, #1050	; 0x41a
   80550:	4b04      	ldr	r3, [pc, #16]	; (80564 <MovingFilterfrekvensBandStop+0xc8>)
   80552:	601a      	str	r2, [r3, #0]
		numberofband = 51;
   80554:	2233      	movs	r2, #51	; 0x33
   80556:	4b04      	ldr	r3, [pc, #16]	; (80568 <MovingFilterfrekvensBandStop+0xcc>)
   80558:	601a      	str	r2, [r3, #0]
		return movingFilterBandStop3(invalue);
   8055a:	4608      	mov	r0, r1
   8055c:	4b05      	ldr	r3, [pc, #20]	; (80574 <MovingFilterfrekvensBandStop+0xd8>)
   8055e:	4798      	blx	r3
   80560:	bd08      	pop	{r3, pc}
	}
   80562:	bd08      	pop	{r3, pc}
   80564:	20070cd4 	.word	0x20070cd4
   80568:	20070cd8 	.word	0x20070cd8
   8056c:	00080c71 	.word	0x00080c71
   80570:	000811f9 	.word	0x000811f9
   80574:	00081361 	.word	0x00081361

00080578 <TC0_Handler>:
extern numberofband;
/**
*  Hanterar interruptet som då utför filtret
*/
void TC0_Handler(void)
{
   80578:	e92d 47f0 	stmdb	sp!, {r4, r5, r6, r7, r8, r9, sl, lr}
   8057c:	b082      	sub	sp, #8
	uint32_t out0,out1,out2,out3,outmovingfilter,outmovingfilterbandstop;
	uint32_t analogpin0,analogpin1,analogpin2,analogpin3;
	uint32_t temp1, temp2;

	
	ul_dummy = tc_get_status(TC0, 0);
   8057e:	2100      	movs	r1, #0
   80580:	484f      	ldr	r0, [pc, #316]	; (806c0 <TC0_Handler+0x148>)
   80582:	4b50      	ldr	r3, [pc, #320]	; (806c4 <TC0_Handler+0x14c>)
   80584:	4798      	blx	r3
   80586:	9001      	str	r0, [sp, #4]

	
	UNUSED(ul_dummy);
   80588:	9b01      	ldr	r3, [sp, #4]
		bool level)
{
	Pio *base = arch_ioport_pin_to_base(pin);

	if (level) {
		base->PIO_SODR = arch_ioport_pin_to_mask(pin);
   8058a:	f04f 6280 	mov.w	r2, #67108864	; 0x4000000
   8058e:	4b4e      	ldr	r3, [pc, #312]	; (806c8 <TC0_Handler+0x150>)
   80590:	631a      	str	r2, [r3, #48]	; 0x30
	
	ioport_set_pin_level(CHECK_PIN,HIGH);		// Sätter pin 22 hög
	adc_start(ADC);								// Startar ADC
   80592:	484e      	ldr	r0, [pc, #312]	; (806cc <TC0_Handler+0x154>)
   80594:	4b4e      	ldr	r3, [pc, #312]	; (806d0 <TC0_Handler+0x158>)
   80596:	4798      	blx	r3
	while((adc_get_status(ADC) & 0x1<<24)==0);  // väntar till DRDY blir hög
   80598:	4d4c      	ldr	r5, [pc, #304]	; (806cc <TC0_Handler+0x154>)
   8059a:	4c4e      	ldr	r4, [pc, #312]	; (806d4 <TC0_Handler+0x15c>)
   8059c:	4628      	mov	r0, r5
   8059e:	47a0      	blx	r4
   805a0:	f010 7f80 	tst.w	r0, #16777216	; 0x1000000
   805a4:	d0fa      	beq.n	8059c <TC0_Handler+0x24>

	invalue=adc_get_channel_value(ADC,ADC_CHANNEL_10);			// Läser av värdet på analogpin8 som är själva ljud signalen
   805a6:	210a      	movs	r1, #10
   805a8:	4848      	ldr	r0, [pc, #288]	; (806cc <TC0_Handler+0x154>)
   805aa:	4b4b      	ldr	r3, [pc, #300]	; (806d8 <TC0_Handler+0x160>)
   805ac:	4798      	blx	r3
   805ae:	4604      	mov	r4, r0
	base->PIO_CODR = mask & ~level;
}

__always_inline static bool arch_ioport_get_pin_level(ioport_pin_t pin)
{
	return arch_ioport_pin_to_base(pin)->PIO_PDSR & arch_ioport_pin_to_mask(pin);
   805b0:	4b45      	ldr	r3, [pc, #276]	; (806c8 <TC0_Handler+0x150>)
   805b2:	6bdb      	ldr	r3, [r3, #60]	; 0x3c

	if((ioport_get_pin_level(pin20)==1) && (ioport_get_pin_level(pin21)==1)){
   805b4:	f413 5f80 	tst.w	r3, #4096	; 0x1000
   805b8:	d042      	beq.n	80640 <TC0_Handler+0xc8>
   805ba:	4b43      	ldr	r3, [pc, #268]	; (806c8 <TC0_Handler+0x150>)
   805bc:	6bdb      	ldr	r3, [r3, #60]	; 0x3c
   805be:	f413 5f00 	tst.w	r3, #8192	; 0x2000
   805c2:	d03d      	beq.n	80640 <TC0_Handler+0xc8>
			sampelfrekvens = 2100;
   805c4:	f640 0234 	movw	r2, #2100	; 0x834
   805c8:	4b44      	ldr	r3, [pc, #272]	; (806dc <TC0_Handler+0x164>)
   805ca:	601a      	str	r2, [r3, #0]
			tc_write_rc(TC0, 0, sampelfrekvens);
   805cc:	2100      	movs	r1, #0
   805ce:	483c      	ldr	r0, [pc, #240]	; (806c0 <TC0_Handler+0x148>)
   805d0:	4b43      	ldr	r3, [pc, #268]	; (806e0 <TC0_Handler+0x168>)
   805d2:	4798      	blx	r3
			//Filter 500-1000 Hz
			out0 = 0;
			out0 = fiveHToOneKhz(invalue);
   805d4:	4620      	mov	r0, r4
   805d6:	4b43      	ldr	r3, [pc, #268]	; (806e4 <TC0_Handler+0x16c>)
   805d8:	4798      	blx	r3
   805da:	4605      	mov	r5, r0
			analogpin0 = adc_get_channel_value(ADC,ADC_CHANNEL_6);
   805dc:	f8df 80ec 	ldr.w	r8, [pc, #236]	; 806cc <TC0_Handler+0x154>
   805e0:	2106      	movs	r1, #6
   805e2:	4640      	mov	r0, r8
   805e4:	4f3c      	ldr	r7, [pc, #240]	; (806d8 <TC0_Handler+0x160>)
   805e6:	47b8      	blx	r7
			out0 = modifyOutPut(out0,analogpin0);
   805e8:	4601      	mov	r1, r0
   805ea:	4628      	mov	r0, r5
   805ec:	4e3e      	ldr	r6, [pc, #248]	; (806e8 <TC0_Handler+0x170>)
   805ee:	47b0      	blx	r6
   805f0:	4682      	mov	sl, r0
			//Filter 1000-2000 Hz
			out1 = 0;
			out1 = oneKTo2KHz(invalue);
   805f2:	4620      	mov	r0, r4
   805f4:	4b3d      	ldr	r3, [pc, #244]	; (806ec <TC0_Handler+0x174>)
   805f6:	4798      	blx	r3
   805f8:	4605      	mov	r5, r0
			analogpin1 = adc_get_channel_value(ADC,ADC_CHANNEL_5);
   805fa:	2105      	movs	r1, #5
   805fc:	4640      	mov	r0, r8
   805fe:	47b8      	blx	r7
			out1 = modifyOutPut(out1,analogpin1);
   80600:	4601      	mov	r1, r0
   80602:	4628      	mov	r0, r5
   80604:	47b0      	blx	r6
   80606:	4605      	mov	r5, r0
			//Filter 2000-4000 Hz
			out2 = 0;
			out2 = twokToFourKHz(invalue);
   80608:	4620      	mov	r0, r4
   8060a:	4b39      	ldr	r3, [pc, #228]	; (806f0 <TC0_Handler+0x178>)
   8060c:	4798      	blx	r3
   8060e:	4681      	mov	r9, r0
			analogpin2 = adc_get_channel_value(ADC,ADC_CHANNEL_4);
   80610:	2104      	movs	r1, #4
   80612:	4640      	mov	r0, r8
   80614:	47b8      	blx	r7
			out2 = modifyOutPut(out2,analogpin2);
   80616:	4601      	mov	r1, r0
   80618:	4648      	mov	r0, r9
   8061a:	47b0      	blx	r6
   8061c:	4681      	mov	r9, r0
			//Filter 4000-8000 Hz
			out3 = 0;
			out3 = fourKTo8Khz(invalue);
   8061e:	4620      	mov	r0, r4
   80620:	4b34      	ldr	r3, [pc, #208]	; (806f4 <TC0_Handler+0x17c>)
   80622:	4798      	blx	r3
   80624:	4604      	mov	r4, r0
			analogpin3 = adc_get_channel_value(ADC,ADC_CHANNEL_3);
   80626:	2103      	movs	r1, #3
   80628:	4640      	mov	r0, r8
   8062a:	47b8      	blx	r7
			out3 = modifyOutPut(out3,analogpin3);
   8062c:	4601      	mov	r1, r0
   8062e:	4620      	mov	r0, r4
   80630:	47b0      	blx	r6
			//OUTPUT
			outvalue = (out0+out1+out2+out3)+2048;	///lägger till filter på outvalue som skickas till DAC. 2048 lägger till offset!! på ~1.4 V
   80632:	eb0a 0305 	add.w	r3, sl, r5
   80636:	f503 6300 	add.w	r3, r3, #2048	; 0x800
   8063a:	444b      	add	r3, r9
   8063c:	181e      	adds	r6, r3, r0
   8063e:	e034      	b.n	806aa <TC0_Handler+0x132>
   80640:	4b21      	ldr	r3, [pc, #132]	; (806c8 <TC0_Handler+0x150>)
   80642:	6bdb      	ldr	r3, [r3, #60]	; 0x3c
		}else if((ioport_get_pin_level(pin20)== 1 ) && (ioport_get_pin_level(pin21)==0)){
   80644:	f413 5f80 	tst.w	r3, #4096	; 0x1000
   80648:	d015      	beq.n	80676 <TC0_Handler+0xfe>
   8064a:	4b1f      	ldr	r3, [pc, #124]	; (806c8 <TC0_Handler+0x150>)
   8064c:	6bdb      	ldr	r3, [r3, #60]	; 0x3c
   8064e:	f413 5f00 	tst.w	r3, #8192	; 0x2000
   80652:	d110      	bne.n	80676 <TC0_Handler+0xfe>
			analogpin0 = adc_get_channel_value(ADC,ADC_CHANNEL_6);
   80654:	2106      	movs	r1, #6
   80656:	481d      	ldr	r0, [pc, #116]	; (806cc <TC0_Handler+0x154>)
   80658:	4b1f      	ldr	r3, [pc, #124]	; (806d8 <TC0_Handler+0x160>)
   8065a:	4798      	blx	r3
			outmovingfilter = MovingFilterfrekvens(analogpin0,invalue);
   8065c:	4621      	mov	r1, r4
   8065e:	4b26      	ldr	r3, [pc, #152]	; (806f8 <TC0_Handler+0x180>)
   80660:	4798      	blx	r3
   80662:	4606      	mov	r6, r0
			tc_write_rc(TC0, 0, sampelfrekvens);
   80664:	4b1d      	ldr	r3, [pc, #116]	; (806dc <TC0_Handler+0x164>)
   80666:	681a      	ldr	r2, [r3, #0]
   80668:	2100      	movs	r1, #0
   8066a:	4815      	ldr	r0, [pc, #84]	; (806c0 <TC0_Handler+0x148>)
   8066c:	4b1c      	ldr	r3, [pc, #112]	; (806e0 <TC0_Handler+0x168>)
   8066e:	4798      	blx	r3
			outvalue = (outmovingfilter)+2048;
   80670:	f506 6600 	add.w	r6, r6, #2048	; 0x800
   80674:	e019      	b.n	806aa <TC0_Handler+0x132>
   80676:	4b14      	ldr	r3, [pc, #80]	; (806c8 <TC0_Handler+0x150>)
   80678:	6bdb      	ldr	r3, [r3, #60]	; 0x3c
		
		}else if((ioport_get_pin_level(pin20)==0) && (ioport_get_pin_level(pin21)==1)){
   8067a:	f413 5f80 	tst.w	r3, #4096	; 0x1000
   8067e:	d114      	bne.n	806aa <TC0_Handler+0x132>
   80680:	4b11      	ldr	r3, [pc, #68]	; (806c8 <TC0_Handler+0x150>)
   80682:	6bdb      	ldr	r3, [r3, #60]	; 0x3c
   80684:	f413 5f00 	tst.w	r3, #8192	; 0x2000
   80688:	d00f      	beq.n	806aa <TC0_Handler+0x132>
			analogpin0 = adc_get_channel_value(ADC,ADC_CHANNEL_6);
   8068a:	2106      	movs	r1, #6
   8068c:	480f      	ldr	r0, [pc, #60]	; (806cc <TC0_Handler+0x154>)
   8068e:	4b12      	ldr	r3, [pc, #72]	; (806d8 <TC0_Handler+0x160>)
   80690:	4798      	blx	r3
			outmovingfilterbandstop = MovingFilterfrekvensBandStop(analogpin0,invalue);
   80692:	4621      	mov	r1, r4
   80694:	4b19      	ldr	r3, [pc, #100]	; (806fc <TC0_Handler+0x184>)
   80696:	4798      	blx	r3
   80698:	4606      	mov	r6, r0
			tc_write_rc(TC0, 0, sampelfrekvens);
   8069a:	4b10      	ldr	r3, [pc, #64]	; (806dc <TC0_Handler+0x164>)
   8069c:	681a      	ldr	r2, [r3, #0]
   8069e:	2100      	movs	r1, #0
   806a0:	4807      	ldr	r0, [pc, #28]	; (806c0 <TC0_Handler+0x148>)
   806a2:	4b0f      	ldr	r3, [pc, #60]	; (806e0 <TC0_Handler+0x168>)
   806a4:	4798      	blx	r3
			outvalue = (outmovingfilterbandstop)+2048;
   806a6:	f506 6600 	add.w	r6, r6, #2048	; 0x800
	}

	dacc_write_conversion_data(DACC,outvalue);	// Skickar ut värdet på DAC
   806aa:	4631      	mov	r1, r6
   806ac:	4814      	ldr	r0, [pc, #80]	; (80700 <TC0_Handler+0x188>)
   806ae:	4b15      	ldr	r3, [pc, #84]	; (80704 <TC0_Handler+0x18c>)
   806b0:	4798      	blx	r3
	Pio *base = arch_ioport_pin_to_base(pin);

	if (level) {
		base->PIO_SODR = arch_ioport_pin_to_mask(pin);
	} else {
		base->PIO_CODR = arch_ioport_pin_to_mask(pin);
   806b2:	f04f 6280 	mov.w	r2, #67108864	; 0x4000000
   806b6:	4b04      	ldr	r3, [pc, #16]	; (806c8 <TC0_Handler+0x150>)
   806b8:	635a      	str	r2, [r3, #52]	; 0x34
	
	ioport_set_pin_level(CHECK_PIN,LOW);		// Sätter pin22 låg
	
}
   806ba:	b002      	add	sp, #8
   806bc:	e8bd 87f0 	ldmia.w	sp!, {r4, r5, r6, r7, r8, r9, sl, pc}
   806c0:	40080000 	.word	0x40080000
   806c4:	000816bd 	.word	0x000816bd
   806c8:	400e1000 	.word	0x400e1000
   806cc:	400c0000 	.word	0x400c0000
   806d0:	0008024d 	.word	0x0008024d
   806d4:	00080271 	.word	0x00080271
   806d8:	00080261 	.word	0x00080261
   806dc:	20070cd4 	.word	0x20070cd4
   806e0:	000816ad 	.word	0x000816ad
   806e4:	00080dd9 	.word	0x00080dd9
   806e8:	00080375 	.word	0x00080375
   806ec:	00081099 	.word	0x00081099
   806f0:	00080709 	.word	0x00080709
   806f4:	00080f39 	.word	0x00080f39
   806f8:	000803c1 	.word	0x000803c1
   806fc:	0008049d 	.word	0x0008049d
   80700:	400c8000 	.word	0x400c8000
   80704:	00081615 	.word	0x00081615

00080708 <twokToFourKHz>:


/*-------------------------------------------------*/

//2000-4000 Hz
uint32_t twokToFourKHz(uint32_t invalue){
   80708:	e92d 43f8 	stmdb	sp!, {r3, r4, r5, r6, r7, r8, r9, lr}
	int32_t outvaluesection1, outvaluesection2,outvaluesection3;
	
	//SECTION 1
	int i;
	for(i =M; i>0; i--){
		xbuffsection1[i]=xbuffsection1[i-1];
   8070c:	4b44      	ldr	r3, [pc, #272]	; (80820 <twokToFourKHz+0x118>)
   8070e:	689a      	ldr	r2, [r3, #8]
   80710:	60da      	str	r2, [r3, #12]
   80712:	6859      	ldr	r1, [r3, #4]
   80714:	6099      	str	r1, [r3, #8]
   80716:	681a      	ldr	r2, [r3, #0]
   80718:	605a      	str	r2, [r3, #4]
	}
	xbuffsection1[0]=(int)invalue;
   8071a:	6018      	str	r0, [r3, #0]
	
	int j;
	for( j =0; j<=M;j++){
		sum1 += ((xbuffsection1[j]*bsection1[j]));
   8071c:	f44f 787a 	mov.w	r8, #1000	; 0x3e8
	}
	for(  j=1; j<=N;j++){
		sumy1 += ((ysection1[j]*asection1[j]));
   80720:	4c40      	ldr	r4, [pc, #256]	; (80824 <twokToFourKHz+0x11c>)
   80722:	6862      	ldr	r2, [r4, #4]
   80724:	68a5      	ldr	r5, [r4, #8]
	}

	
	for(i = N; i>1;i--){
		ysection1[i]=ysection1[i-1];
   80726:	60e5      	str	r5, [r4, #12]
   80728:	60a2      	str	r2, [r4, #8]
	}

	totsumsection1= (((sum1/1000)+(sumy1/1000)));
	ysection1[1] = totsumsection1;
   8072a:	4f3f      	ldr	r7, [pc, #252]	; (80828 <twokToFourKHz+0x120>)
   8072c:	fb07 f101 	mul.w	r1, r7, r1
   80730:	fb08 1000 	mla	r0, r8, r0, r1
   80734:	4e3d      	ldr	r6, [pc, #244]	; (8082c <twokToFourKHz+0x124>)
   80736:	fb86 1300 	smull	r1, r3, r6, r0
   8073a:	17c0      	asrs	r0, r0, #31
   8073c:	ebc0 10a3 	rsb	r0, r0, r3, asr #6
   80740:	4b3b      	ldr	r3, [pc, #236]	; (80830 <twokToFourKHz+0x128>)
   80742:	fb03 f305 	mul.w	r3, r3, r5
   80746:	f240 5189 	movw	r1, #1417	; 0x589
   8074a:	fb01 3302 	mla	r3, r1, r2, r3
   8074e:	fb86 1203 	smull	r1, r2, r6, r3
   80752:	17db      	asrs	r3, r3, #31
   80754:	ebc3 13a2 	rsb	r3, r3, r2, asr #6
   80758:	f8df 90fc 	ldr.w	r9, [pc, #252]	; 80858 <twokToFourKHz+0x150>
   8075c:	4418      	add	r0, r3
   8075e:	47c8      	blx	r9
   80760:	4d34      	ldr	r5, [pc, #208]	; (80834 <twokToFourKHz+0x12c>)
   80762:	47a8      	blx	r5
   80764:	6060      	str	r0, [r4, #4]
	outvaluesection1 = totsumsection1;
	//SECTION 2
	int l;
	for(l =M; l>0; l--){
		xbuffsection2[l]=xbuffsection2[l-1];
   80766:	4b34      	ldr	r3, [pc, #208]	; (80838 <twokToFourKHz+0x130>)
   80768:	689a      	ldr	r2, [r3, #8]
   8076a:	60da      	str	r2, [r3, #12]
   8076c:	6859      	ldr	r1, [r3, #4]
   8076e:	6099      	str	r1, [r3, #8]
   80770:	681a      	ldr	r2, [r3, #0]
   80772:	605a      	str	r2, [r3, #4]
	}
	xbuffsection2[0]=(int)outvaluesection1;
   80774:	6018      	str	r0, [r3, #0]
	int m;
	for( m =0; m<=M;m++){
		sum2 += ((xbuffsection2[m]*bsection2[m]));
	}
	for(  m=1; m<=N;m++){
		sumy2 += ((ysection2[m]*asection2[m]));
   80776:	4c31      	ldr	r4, [pc, #196]	; (8083c <twokToFourKHz+0x134>)
   80778:	6862      	ldr	r2, [r4, #4]
   8077a:	68a3      	ldr	r3, [r4, #8]
	}
	
	for(l = N; l>1;l--){
		ysection2[l]=ysection2[l-1];
   8077c:	60e3      	str	r3, [r4, #12]
   8077e:	60a2      	str	r2, [r4, #8]
	}
	totsumsection2= (((sum2/1000)+(sumy2/1000)));
	ysection2[1] = totsumsection2;
   80780:	fb07 f101 	mul.w	r1, r7, r1
   80784:	fb08 1000 	mla	r0, r8, r0, r1
   80788:	fb86 e100 	smull	lr, r1, r6, r0
   8078c:	17c0      	asrs	r0, r0, #31
   8078e:	ebc0 10a1 	rsb	r0, r0, r1, asr #6
   80792:	492b      	ldr	r1, [pc, #172]	; (80840 <twokToFourKHz+0x138>)
   80794:	fb01 f303 	mul.w	r3, r1, r3
   80798:	f240 214e 	movw	r1, #590	; 0x24e
   8079c:	fb01 3302 	mla	r3, r1, r2, r3
   807a0:	fb86 1203 	smull	r1, r2, r6, r3
   807a4:	17db      	asrs	r3, r3, #31
   807a6:	ebc3 13a2 	rsb	r3, r3, r2, asr #6
   807aa:	4418      	add	r0, r3
   807ac:	47c8      	blx	r9
   807ae:	47a8      	blx	r5
   807b0:	6060      	str	r0, [r4, #4]
	outvaluesection2 = totsumsection2;

	//SECTION 3
	int o;
	for(o =M; o>0; o--){
		xbuffsection3[o]=xbuffsection3[o-1];
   807b2:	4b24      	ldr	r3, [pc, #144]	; (80844 <twokToFourKHz+0x13c>)
   807b4:	689a      	ldr	r2, [r3, #8]
   807b6:	60da      	str	r2, [r3, #12]
   807b8:	f8d3 e004 	ldr.w	lr, [r3, #4]
   807bc:	f8c3 e008 	str.w	lr, [r3, #8]
   807c0:	681a      	ldr	r2, [r3, #0]
   807c2:	605a      	str	r2, [r3, #4]
	}
	xbuffsection3[0]=(int)outvaluesection2;
   807c4:	6018      	str	r0, [r3, #0]
	int p;
	for( p =0; p<=M;p++){
		sum3 += ((xbuffsection3[p]*bsection3[p]));
	}
	for(  p=1; p<=N;p++){
		sumy3 += ((ysection3[p]*asection3[p]));
   807c6:	4c20      	ldr	r4, [pc, #128]	; (80848 <twokToFourKHz+0x140>)
   807c8:	6862      	ldr	r2, [r4, #4]
   807ca:	68a1      	ldr	r1, [r4, #8]
	}
	
	for(o = M; o>1;o--){
		ysection3[o]=ysection3[o-1];
   807cc:	60e1      	str	r1, [r4, #12]
   807ce:	60a2      	str	r2, [r4, #8]
	}
	totsumsection3= (((sum3/1000)+(sumy3/1000))*0.04);//0.09	*0.25
	ysection3[1] = totsumsection3;
   807d0:	fb07 f70e 	mul.w	r7, r7, lr
   807d4:	fb08 7000 	mla	r0, r8, r0, r7
   807d8:	fb86 7300 	smull	r7, r3, r6, r0
   807dc:	17c0      	asrs	r0, r0, #31
   807de:	ebc0 10a3 	rsb	r0, r0, r3, asr #6
   807e2:	f46f 73fe 	mvn.w	r3, #508	; 0x1fc
   807e6:	fb03 f301 	mul.w	r3, r3, r1
   807ea:	f44f 7169 	mov.w	r1, #932	; 0x3a4
   807ee:	fb01 3302 	mla	r3, r1, r2, r3
   807f2:	fb86 2603 	smull	r2, r6, r6, r3
   807f6:	17db      	asrs	r3, r3, #31
   807f8:	ebc3 13a6 	rsb	r3, r3, r6, asr #6
   807fc:	4418      	add	r0, r3
   807fe:	4b13      	ldr	r3, [pc, #76]	; (8084c <twokToFourKHz+0x144>)
   80800:	4798      	blx	r3
   80802:	a305      	add	r3, pc, #20	; (adr r3, 80818 <twokToFourKHz+0x110>)
   80804:	e9d3 2300 	ldrd	r2, r3, [r3]
   80808:	4e11      	ldr	r6, [pc, #68]	; (80850 <twokToFourKHz+0x148>)
   8080a:	47b0      	blx	r6
   8080c:	4b11      	ldr	r3, [pc, #68]	; (80854 <twokToFourKHz+0x14c>)
   8080e:	4798      	blx	r3
   80810:	47a8      	blx	r5
   80812:	6060      	str	r0, [r4, #4]
	outvaluesection3 = totsumsection3;
	return outvaluesection3;
   80814:	e8bd 83f8 	ldmia.w	sp!, {r3, r4, r5, r6, r7, r8, r9, pc}
   80818:	47ae147b 	.word	0x47ae147b
   8081c:	3fa47ae1 	.word	0x3fa47ae1
   80820:	20070860 	.word	0x20070860
   80824:	20070890 	.word	0x20070890
   80828:	fffffc18 	.word	0xfffffc18
   8082c:	10624dd3 	.word	0x10624dd3
   80830:	fffffcec 	.word	0xfffffcec
   80834:	00082df1 	.word	0x00082df1
   80838:	20070870 	.word	0x20070870
   8083c:	200708a0 	.word	0x200708a0
   80840:	fffffd4c 	.word	0xfffffd4c
   80844:	20070880 	.word	0x20070880
   80848:	200708b0 	.word	0x200708b0
   8084c:	00082645 	.word	0x00082645
   80850:	00082711 	.word	0x00082711
   80854:	00082b35 	.word	0x00082b35
   80858:	00082d49 	.word	0x00082d49
   8085c:	00000000 	.word	0x00000000

00080860 <movingFilter1>:

}; //koefficienterna * 1000

/*-------------------------------------------------*/

uint32_t movingFilter1(uint32_t invalue){
   80860:	e92d 43f8 	stmdb	sp!, {r3, r4, r5, r6, r7, r8, r9, lr}
	int32_t outvaluesection1, outvaluesection2,outvaluesection3;
	
	//SECTION 1
	int i;
	for(i =M; i>0; i--){
		xbuffsection1[i]=xbuffsection1[i-1];
   80864:	4b44      	ldr	r3, [pc, #272]	; (80978 <movingFilter1+0x118>)
   80866:	689a      	ldr	r2, [r3, #8]
   80868:	60da      	str	r2, [r3, #12]
   8086a:	6859      	ldr	r1, [r3, #4]
   8086c:	6099      	str	r1, [r3, #8]
   8086e:	681a      	ldr	r2, [r3, #0]
   80870:	605a      	str	r2, [r3, #4]
	}
	xbuffsection1[0]=(int)invalue;
   80872:	6018      	str	r0, [r3, #0]
	
	int j;
	for( j =0; j<=M;j++){
		sum1 += ((xbuffsection1[j]*bsection1[j]));
   80874:	f44f 787a 	mov.w	r8, #1000	; 0x3e8
	}
	for(  j=1; j<=N;j++){
		sumy1 += ((ysection1[j]*asection1[j]));
   80878:	4c40      	ldr	r4, [pc, #256]	; (8097c <movingFilter1+0x11c>)
   8087a:	6862      	ldr	r2, [r4, #4]
   8087c:	68a3      	ldr	r3, [r4, #8]
	}
	
	for(i = N; i>1;i--){
		ysection1[i]=ysection1[i-1];
   8087e:	60e3      	str	r3, [r4, #12]
   80880:	60a2      	str	r2, [r4, #8]
	}

	totsumsection1= (((sum1/1000)+(sumy1/1000)));
	ysection1[1] = totsumsection1;
   80882:	4f3f      	ldr	r7, [pc, #252]	; (80980 <movingFilter1+0x120>)
   80884:	fb07 f101 	mul.w	r1, r7, r1
   80888:	fb08 1000 	mla	r0, r8, r0, r1
   8088c:	4e3d      	ldr	r6, [pc, #244]	; (80984 <movingFilter1+0x124>)
   8088e:	fb86 5100 	smull	r5, r1, r6, r0
   80892:	17c0      	asrs	r0, r0, #31
   80894:	ebc0 10a1 	rsb	r0, r0, r1, asr #6
   80898:	eba3 1303 	sub.w	r3, r3, r3, lsl #4
   8089c:	019b      	lsls	r3, r3, #6
   8089e:	f240 7199 	movw	r1, #1945	; 0x799
   808a2:	fb01 3302 	mla	r3, r1, r2, r3
   808a6:	fb86 1203 	smull	r1, r2, r6, r3
   808aa:	17db      	asrs	r3, r3, #31
   808ac:	ebc3 13a2 	rsb	r3, r3, r2, asr #6
   808b0:	f8df 90fc 	ldr.w	r9, [pc, #252]	; 809b0 <movingFilter1+0x150>
   808b4:	4418      	add	r0, r3
   808b6:	47c8      	blx	r9
   808b8:	4d33      	ldr	r5, [pc, #204]	; (80988 <movingFilter1+0x128>)
   808ba:	47a8      	blx	r5
   808bc:	6060      	str	r0, [r4, #4]
	outvaluesection1 = totsumsection1;
	//SECTION 2
	int l;
	for(l =M; l>0; l--){
		xbuffsection2[l]=xbuffsection2[l-1];
   808be:	4b33      	ldr	r3, [pc, #204]	; (8098c <movingFilter1+0x12c>)
   808c0:	689a      	ldr	r2, [r3, #8]
   808c2:	60da      	str	r2, [r3, #12]
   808c4:	6859      	ldr	r1, [r3, #4]
   808c6:	6099      	str	r1, [r3, #8]
   808c8:	681a      	ldr	r2, [r3, #0]
   808ca:	605a      	str	r2, [r3, #4]
	}
	xbuffsection2[0]=(int)outvaluesection1;
   808cc:	6018      	str	r0, [r3, #0]
	int m;
	for( m =0; m<=M;m++){
		sum2 += ((xbuffsection2[m]*bsection2[m]));
	}
	for(  m=1; m<=N;m++){
		sumy2 += ((ysection2[m]*asection2[m]));
   808ce:	4c30      	ldr	r4, [pc, #192]	; (80990 <movingFilter1+0x130>)
   808d0:	6862      	ldr	r2, [r4, #4]
   808d2:	68a3      	ldr	r3, [r4, #8]
	}
	
	for(l = N; l>1;l--){
		ysection2[l]=ysection2[l-1];
   808d4:	60e3      	str	r3, [r4, #12]
   808d6:	60a2      	str	r2, [r4, #8]
	}
	totsumsection2= (((sum2/1000)+(sumy2/1000)));
	ysection2[1] = totsumsection2;
   808d8:	fb07 f101 	mul.w	r1, r7, r1
   808dc:	fb08 1000 	mla	r0, r8, r0, r1
   808e0:	fb86 e100 	smull	lr, r1, r6, r0
   808e4:	17c0      	asrs	r0, r0, #31
   808e6:	ebc0 10a1 	rsb	r0, r0, r1, asr #6
   808ea:	492a      	ldr	r1, [pc, #168]	; (80994 <movingFilter1+0x134>)
   808ec:	fb01 f303 	mul.w	r3, r1, r3
   808f0:	f240 71b5 	movw	r1, #1973	; 0x7b5
   808f4:	fb01 3302 	mla	r3, r1, r2, r3
   808f8:	fb86 1203 	smull	r1, r2, r6, r3
   808fc:	17db      	asrs	r3, r3, #31
   808fe:	ebc3 13a2 	rsb	r3, r3, r2, asr #6
   80902:	4418      	add	r0, r3
   80904:	47c8      	blx	r9
   80906:	47a8      	blx	r5
   80908:	6060      	str	r0, [r4, #4]
	outvaluesection2 = totsumsection2;

	//SECTION 3
	int o;
	for(o =M; o>0; o--){
		xbuffsection3[o]=xbuffsection3[o-1];
   8090a:	4b23      	ldr	r3, [pc, #140]	; (80998 <movingFilter1+0x138>)
   8090c:	689a      	ldr	r2, [r3, #8]
   8090e:	60da      	str	r2, [r3, #12]
   80910:	f8d3 e004 	ldr.w	lr, [r3, #4]
   80914:	f8c3 e008 	str.w	lr, [r3, #8]
   80918:	681a      	ldr	r2, [r3, #0]
   8091a:	605a      	str	r2, [r3, #4]
	}
	xbuffsection3[0]=(int)outvaluesection2;
   8091c:	6018      	str	r0, [r3, #0]
	int p;
	for( p =0; p<=M;p++){
		sum3 += ((xbuffsection3[p]*bsection3[p]));
	}
	for(  p=1; p<=N;p++){
		sumy3 += ((ysection3[p]*asection3[p]));
   8091e:	4c1f      	ldr	r4, [pc, #124]	; (8099c <movingFilter1+0x13c>)
   80920:	6862      	ldr	r2, [r4, #4]
   80922:	68a1      	ldr	r1, [r4, #8]
	}
	
	for(o = M; o>1;o--){
		ysection3[o]=ysection3[o-1];
   80924:	60e1      	str	r1, [r4, #12]
   80926:	60a2      	str	r2, [r4, #8]
	}
	totsumsection3= (((sum3/1000)+(sumy3/1000))*0.004);
	ysection3[1] = totsumsection3;
   80928:	fb07 f70e 	mul.w	r7, r7, lr
   8092c:	fb08 7000 	mla	r0, r8, r0, r7
   80930:	fb86 7300 	smull	r7, r3, r6, r0
   80934:	17c0      	asrs	r0, r0, #31
   80936:	ebc0 10a3 	rsb	r0, r0, r3, asr #6
   8093a:	4b19      	ldr	r3, [pc, #100]	; (809a0 <movingFilter1+0x140>)
   8093c:	fb03 f301 	mul.w	r3, r3, r1
   80940:	f240 718b 	movw	r1, #1931	; 0x78b
   80944:	fb01 3302 	mla	r3, r1, r2, r3
   80948:	fb86 2603 	smull	r2, r6, r6, r3
   8094c:	17db      	asrs	r3, r3, #31
   8094e:	ebc3 13a6 	rsb	r3, r3, r6, asr #6
   80952:	4418      	add	r0, r3
   80954:	4b13      	ldr	r3, [pc, #76]	; (809a4 <movingFilter1+0x144>)
   80956:	4798      	blx	r3
   80958:	a305      	add	r3, pc, #20	; (adr r3, 80970 <movingFilter1+0x110>)
   8095a:	e9d3 2300 	ldrd	r2, r3, [r3]
   8095e:	4e12      	ldr	r6, [pc, #72]	; (809a8 <movingFilter1+0x148>)
   80960:	47b0      	blx	r6
   80962:	4b12      	ldr	r3, [pc, #72]	; (809ac <movingFilter1+0x14c>)
   80964:	4798      	blx	r3
   80966:	47a8      	blx	r5
   80968:	6060      	str	r0, [r4, #4]
	outvaluesection3 = totsumsection3;
	return outvaluesection3;

   8096a:	e8bd 83f8 	ldmia.w	sp!, {r3, r4, r5, r6, r7, r8, r9, pc}
   8096e:	bf00      	nop
   80970:	d2f1a9fc 	.word	0xd2f1a9fc
   80974:	3f70624d 	.word	0x3f70624d
   80978:	200708c0 	.word	0x200708c0
   8097c:	200708f0 	.word	0x200708f0
   80980:	fffffc18 	.word	0xfffffc18
   80984:	10624dd3 	.word	0x10624dd3
   80988:	00082df1 	.word	0x00082df1
   8098c:	200708d0 	.word	0x200708d0
   80990:	20070900 	.word	0x20070900
   80994:	fffffc2e 	.word	0xfffffc2e
   80998:	200708e0 	.word	0x200708e0
   8099c:	20070910 	.word	0x20070910
   809a0:	fffffc55 	.word	0xfffffc55
   809a4:	00082645 	.word	0x00082645
   809a8:	00082711 	.word	0x00082711
   809ac:	00082b35 	.word	0x00082b35
   809b0:	00082d49 	.word	0x00082d49
   809b4:	00000000 	.word	0x00000000

000809b8 <movingFilter2>:

 }; //koefficienterna * 1000

 /*-------------------------------------------------*/

 uint32_t movingFilter2(uint32_t invalue){
   809b8:	e92d 43f8 	stmdb	sp!, {r3, r4, r5, r6, r7, r8, r9, lr}
 int32_t outvaluesection1, outvaluesection2,outvaluesection3;
 
 //SECTION 1
 int i;
 for(i =M; i>0; i--){
 xbuffsection1[i]=xbuffsection1[i-1];
   809bc:	4b44      	ldr	r3, [pc, #272]	; (80ad0 <movingFilter2+0x118>)
   809be:	689a      	ldr	r2, [r3, #8]
   809c0:	60da      	str	r2, [r3, #12]
   809c2:	6859      	ldr	r1, [r3, #4]
   809c4:	6099      	str	r1, [r3, #8]
   809c6:	681a      	ldr	r2, [r3, #0]
   809c8:	605a      	str	r2, [r3, #4]
 }
 xbuffsection1[0]=(int)invalue;
   809ca:	6018      	str	r0, [r3, #0]
 
 int j;
 for( j =0; j<=M;j++){
 sum1 += ((xbuffsection1[j]*bsection1[j]));
   809cc:	f44f 787a 	mov.w	r8, #1000	; 0x3e8
 }
 for(  j=1; j<=N;j++){
 sumy1 += ((ysection1[j]*asection1[j]));
   809d0:	4c40      	ldr	r4, [pc, #256]	; (80ad4 <movingFilter2+0x11c>)
   809d2:	6862      	ldr	r2, [r4, #4]
   809d4:	68a5      	ldr	r5, [r4, #8]
 }
 
 for(i = N; i>1;i--){
 ysection1[i]=ysection1[i-1];
   809d6:	60e5      	str	r5, [r4, #12]
   809d8:	60a2      	str	r2, [r4, #8]
 }

 totsumsection1= (((sum1/1000)+(sumy1/1000)));
 ysection1[1] = totsumsection1;
   809da:	4f3f      	ldr	r7, [pc, #252]	; (80ad8 <movingFilter2+0x120>)
   809dc:	fb07 f101 	mul.w	r1, r7, r1
   809e0:	fb08 1000 	mla	r0, r8, r0, r1
   809e4:	4e3d      	ldr	r6, [pc, #244]	; (80adc <movingFilter2+0x124>)
   809e6:	fb86 1300 	smull	r1, r3, r6, r0
   809ea:	17c0      	asrs	r0, r0, #31
   809ec:	ebc0 10a3 	rsb	r0, r0, r3, asr #6
   809f0:	4b3b      	ldr	r3, [pc, #236]	; (80ae0 <movingFilter2+0x128>)
   809f2:	fb03 f305 	mul.w	r3, r3, r5
   809f6:	f240 6167 	movw	r1, #1639	; 0x667
   809fa:	fb01 3302 	mla	r3, r1, r2, r3
   809fe:	fb86 1203 	smull	r1, r2, r6, r3
   80a02:	17db      	asrs	r3, r3, #31
   80a04:	ebc3 13a2 	rsb	r3, r3, r2, asr #6
   80a08:	f8df 9100 	ldr.w	r9, [pc, #256]	; 80b0c <movingFilter2+0x154>
   80a0c:	4418      	add	r0, r3
   80a0e:	47c8      	blx	r9
   80a10:	4d34      	ldr	r5, [pc, #208]	; (80ae4 <movingFilter2+0x12c>)
   80a12:	47a8      	blx	r5
   80a14:	6060      	str	r0, [r4, #4]
 outvaluesection1 = totsumsection1;
 //SECTION 2
 int l;
 for(l =M; l>0; l--){
 xbuffsection2[l]=xbuffsection2[l-1];
   80a16:	4b34      	ldr	r3, [pc, #208]	; (80ae8 <movingFilter2+0x130>)
   80a18:	689a      	ldr	r2, [r3, #8]
   80a1a:	60da      	str	r2, [r3, #12]
   80a1c:	6859      	ldr	r1, [r3, #4]
   80a1e:	6099      	str	r1, [r3, #8]
   80a20:	681a      	ldr	r2, [r3, #0]
   80a22:	605a      	str	r2, [r3, #4]
 }
 xbuffsection2[0]=(int)outvaluesection1;
   80a24:	6018      	str	r0, [r3, #0]
 int m;
 for( m =0; m<=M;m++){
 sum2 += ((xbuffsection2[m]*bsection2[m]));
 }
 for(  m=1; m<=N;m++){
 sumy2 += ((ysection2[m]*asection2[m]));
   80a26:	4c31      	ldr	r4, [pc, #196]	; (80aec <movingFilter2+0x134>)
   80a28:	6862      	ldr	r2, [r4, #4]
   80a2a:	68a3      	ldr	r3, [r4, #8]
 }
 
 for(l = N; l>1;l--){
 ysection2[l]=ysection2[l-1];
   80a2c:	60e3      	str	r3, [r4, #12]
   80a2e:	60a2      	str	r2, [r4, #8]
 }
 totsumsection2= (((sum2/1000)+(sumy2/1000)));
 ysection2[1] = totsumsection2;
   80a30:	fb07 f101 	mul.w	r1, r7, r1
   80a34:	fb08 1000 	mla	r0, r8, r0, r1
   80a38:	fb86 e100 	smull	lr, r1, r6, r0
   80a3c:	17c0      	asrs	r0, r0, #31
   80a3e:	ebc0 10a1 	rsb	r0, r0, r1, asr #6
   80a42:	492b      	ldr	r1, [pc, #172]	; (80af0 <movingFilter2+0x138>)
   80a44:	fb01 f303 	mul.w	r3, r1, r3
   80a48:	f240 7139 	movw	r1, #1849	; 0x739
   80a4c:	fb01 3302 	mla	r3, r1, r2, r3
   80a50:	fb86 1203 	smull	r1, r2, r6, r3
   80a54:	17db      	asrs	r3, r3, #31
   80a56:	ebc3 13a2 	rsb	r3, r3, r2, asr #6
   80a5a:	4418      	add	r0, r3
   80a5c:	47c8      	blx	r9
   80a5e:	47a8      	blx	r5
   80a60:	6060      	str	r0, [r4, #4]
 outvaluesection2 = totsumsection2;

 //SECTION 3
 int o;
 for(o =M; o>0; o--){
 xbuffsection3[o]=xbuffsection3[o-1];
   80a62:	4b24      	ldr	r3, [pc, #144]	; (80af4 <movingFilter2+0x13c>)
   80a64:	689a      	ldr	r2, [r3, #8]
   80a66:	60da      	str	r2, [r3, #12]
   80a68:	f8d3 e004 	ldr.w	lr, [r3, #4]
   80a6c:	f8c3 e008 	str.w	lr, [r3, #8]
   80a70:	681a      	ldr	r2, [r3, #0]
   80a72:	605a      	str	r2, [r3, #4]
 }
 xbuffsection3[0]=(int)outvaluesection2;
   80a74:	6018      	str	r0, [r3, #0]
 int p;
 for( p =0; p<=M;p++){
 sum3 += ((xbuffsection3[p]*bsection3[p]));
 }
 for(  p=1; p<=N;p++){
 sumy3 += ((ysection3[p]*asection3[p]));
   80a76:	4c20      	ldr	r4, [pc, #128]	; (80af8 <movingFilter2+0x140>)
   80a78:	6862      	ldr	r2, [r4, #4]
   80a7a:	68a1      	ldr	r1, [r4, #8]
 }
 
 for(o = M; o>1;o--){
 ysection3[o]=ysection3[o-1];
   80a7c:	60e1      	str	r1, [r4, #12]
   80a7e:	60a2      	str	r2, [r4, #8]
 }
 totsumsection3= (((sum3/1000)+(sumy3/1000))*0.0175);
 ysection3[1] = totsumsection3;
   80a80:	fb07 f70e 	mul.w	r7, r7, lr
   80a84:	fb08 7000 	mla	r0, r8, r0, r7
   80a88:	fb86 7300 	smull	r7, r3, r6, r0
   80a8c:	17c0      	asrs	r0, r0, #31
   80a8e:	ebc0 10a3 	rsb	r0, r0, r3, asr #6
   80a92:	4b1a      	ldr	r3, [pc, #104]	; (80afc <movingFilter2+0x144>)
   80a94:	fb03 f301 	mul.w	r3, r3, r1
   80a98:	f44f 61d0 	mov.w	r1, #1664	; 0x680
   80a9c:	fb01 3302 	mla	r3, r1, r2, r3
   80aa0:	fb86 2603 	smull	r2, r6, r6, r3
   80aa4:	17db      	asrs	r3, r3, #31
   80aa6:	ebc3 13a6 	rsb	r3, r3, r6, asr #6
   80aaa:	4418      	add	r0, r3
   80aac:	4b14      	ldr	r3, [pc, #80]	; (80b00 <movingFilter2+0x148>)
   80aae:	4798      	blx	r3
   80ab0:	a305      	add	r3, pc, #20	; (adr r3, 80ac8 <movingFilter2+0x110>)
   80ab2:	e9d3 2300 	ldrd	r2, r3, [r3]
   80ab6:	4e13      	ldr	r6, [pc, #76]	; (80b04 <movingFilter2+0x14c>)
   80ab8:	47b0      	blx	r6
   80aba:	4b13      	ldr	r3, [pc, #76]	; (80b08 <movingFilter2+0x150>)
   80abc:	4798      	blx	r3
   80abe:	47a8      	blx	r5
   80ac0:	6060      	str	r0, [r4, #4]
 outvaluesection3 = totsumsection3;
 return outvaluesection3;

   80ac2:	e8bd 83f8 	ldmia.w	sp!, {r3, r4, r5, r6, r7, r8, r9, pc}
   80ac6:	bf00      	nop
   80ac8:	1eb851ec 	.word	0x1eb851ec
   80acc:	3f91eb85 	.word	0x3f91eb85
   80ad0:	20070920 	.word	0x20070920
   80ad4:	20070950 	.word	0x20070950
   80ad8:	fffffc18 	.word	0xfffffc18
   80adc:	10624dd3 	.word	0x10624dd3
   80ae0:	fffffcad 	.word	0xfffffcad
   80ae4:	00082df1 	.word	0x00082df1
   80ae8:	20070930 	.word	0x20070930
   80aec:	20070960 	.word	0x20070960
   80af0:	fffffc6e 	.word	0xfffffc6e
   80af4:	20070940 	.word	0x20070940
   80af8:	20070970 	.word	0x20070970
   80afc:	fffffcf9 	.word	0xfffffcf9
   80b00:	00082645 	.word	0x00082645
   80b04:	00082711 	.word	0x00082711
   80b08:	00082b35 	.word	0x00082b35
   80b0c:	00082d49 	.word	0x00082d49

00080b10 <movingFilter3>:

 }; //koefficienterna * 1000

 /*-------------------------------------------------*/

 uint32_t movingFilter3(uint32_t invalue){
   80b10:	e92d 43f8 	stmdb	sp!, {r3, r4, r5, r6, r7, r8, r9, lr}
 int32_t outvaluesection1, outvaluesection2,outvaluesection3;
 
 //SECTION 1
 int i;
 for(i =M; i>0; i--){
 xbuffsection1[i]=xbuffsection1[i-1];
   80b14:	4b44      	ldr	r3, [pc, #272]	; (80c28 <movingFilter3+0x118>)
   80b16:	689a      	ldr	r2, [r3, #8]
   80b18:	60da      	str	r2, [r3, #12]
   80b1a:	6859      	ldr	r1, [r3, #4]
   80b1c:	6099      	str	r1, [r3, #8]
   80b1e:	681a      	ldr	r2, [r3, #0]
   80b20:	605a      	str	r2, [r3, #4]
 }
 xbuffsection1[0]=(int)invalue;
   80b22:	6018      	str	r0, [r3, #0]
 
 int j;
 for( j =0; j<=M;j++){
 sum1 += ((xbuffsection1[j]*bsection1[j]));
   80b24:	f44f 787a 	mov.w	r8, #1000	; 0x3e8
 }
 for(  j=1; j<=N;j++){
 sumy1 += ((ysection1[j]*asection1[j]));
   80b28:	4c40      	ldr	r4, [pc, #256]	; (80c2c <movingFilter3+0x11c>)
   80b2a:	6862      	ldr	r2, [r4, #4]
   80b2c:	68a5      	ldr	r5, [r4, #8]
 }
 
 for(i = N; i>1;i--){
 ysection1[i]=ysection1[i-1];
   80b2e:	60e5      	str	r5, [r4, #12]
   80b30:	60a2      	str	r2, [r4, #8]
 }

 totsumsection1= (((sum1/1000)+(sumy1/1000)));
 ysection1[1] = totsumsection1;
   80b32:	4f3f      	ldr	r7, [pc, #252]	; (80c30 <movingFilter3+0x120>)
   80b34:	fb07 f101 	mul.w	r1, r7, r1
   80b38:	fb08 1000 	mla	r0, r8, r0, r1
   80b3c:	4e3d      	ldr	r6, [pc, #244]	; (80c34 <movingFilter3+0x124>)
   80b3e:	fb86 1300 	smull	r1, r3, r6, r0
   80b42:	17c0      	asrs	r0, r0, #31
   80b44:	ebc0 10a3 	rsb	r0, r0, r3, asr #6
   80b48:	4b3b      	ldr	r3, [pc, #236]	; (80c38 <movingFilter3+0x128>)
   80b4a:	fb03 f305 	mul.w	r3, r3, r5
   80b4e:	493b      	ldr	r1, [pc, #236]	; (80c3c <movingFilter3+0x12c>)
   80b50:	fb01 3302 	mla	r3, r1, r2, r3
   80b54:	fb86 1203 	smull	r1, r2, r6, r3
   80b58:	17db      	asrs	r3, r3, #31
   80b5a:	ebc3 13a2 	rsb	r3, r3, r2, asr #6
   80b5e:	f8df 9108 	ldr.w	r9, [pc, #264]	; 80c68 <movingFilter3+0x158>
   80b62:	4418      	add	r0, r3
   80b64:	47c8      	blx	r9
   80b66:	4d36      	ldr	r5, [pc, #216]	; (80c40 <movingFilter3+0x130>)
   80b68:	47a8      	blx	r5
   80b6a:	6060      	str	r0, [r4, #4]
 outvaluesection1 = totsumsection1;
 //SECTION 2
 int l;
 for(l =M; l>0; l--){
 xbuffsection2[l]=xbuffsection2[l-1];
   80b6c:	4b35      	ldr	r3, [pc, #212]	; (80c44 <movingFilter3+0x134>)
   80b6e:	689a      	ldr	r2, [r3, #8]
   80b70:	60da      	str	r2, [r3, #12]
   80b72:	6859      	ldr	r1, [r3, #4]
   80b74:	6099      	str	r1, [r3, #8]
   80b76:	681a      	ldr	r2, [r3, #0]
   80b78:	605a      	str	r2, [r3, #4]
 }
 xbuffsection2[0]=(int)outvaluesection1;
   80b7a:	6018      	str	r0, [r3, #0]
 int m;
 for( m =0; m<=M;m++){
 sum2 += ((xbuffsection2[m]*bsection2[m]));
 }
 for(  m=1; m<=N;m++){
 sumy2 += ((ysection2[m]*asection2[m]));
   80b7c:	4c32      	ldr	r4, [pc, #200]	; (80c48 <movingFilter3+0x138>)
   80b7e:	6862      	ldr	r2, [r4, #4]
   80b80:	68a3      	ldr	r3, [r4, #8]
 }
 
 for(l = N; l>1;l--){
 ysection2[l]=ysection2[l-1];
   80b82:	60e3      	str	r3, [r4, #12]
   80b84:	60a2      	str	r2, [r4, #8]
 }
 totsumsection2= (((sum2/1000)+(sumy2/1000)));
 ysection2[1] = totsumsection2;
   80b86:	fb07 f101 	mul.w	r1, r7, r1
   80b8a:	fb08 1000 	mla	r0, r8, r0, r1
   80b8e:	fb86 e100 	smull	lr, r1, r6, r0
   80b92:	17c0      	asrs	r0, r0, #31
   80b94:	ebc0 10a1 	rsb	r0, r0, r1, asr #6
   80b98:	492c      	ldr	r1, [pc, #176]	; (80c4c <movingFilter3+0x13c>)
   80b9a:	fb01 f303 	mul.w	r3, r1, r3
   80b9e:	f240 3133 	movw	r1, #819	; 0x333
   80ba2:	fb01 3302 	mla	r3, r1, r2, r3
   80ba6:	fb86 1203 	smull	r1, r2, r6, r3
   80baa:	17db      	asrs	r3, r3, #31
   80bac:	ebc3 13a2 	rsb	r3, r3, r2, asr #6
   80bb0:	4418      	add	r0, r3
   80bb2:	47c8      	blx	r9
   80bb4:	47a8      	blx	r5
   80bb6:	6060      	str	r0, [r4, #4]
 outvaluesection2 = totsumsection2;

 //SECTION 3
 int o;
 for(o =M; o>0; o--){
 xbuffsection3[o]=xbuffsection3[o-1];
   80bb8:	4b25      	ldr	r3, [pc, #148]	; (80c50 <movingFilter3+0x140>)
   80bba:	689a      	ldr	r2, [r3, #8]
   80bbc:	60da      	str	r2, [r3, #12]
   80bbe:	f8d3 e004 	ldr.w	lr, [r3, #4]
   80bc2:	f8c3 e008 	str.w	lr, [r3, #8]
   80bc6:	681a      	ldr	r2, [r3, #0]
   80bc8:	605a      	str	r2, [r3, #4]
 }
 xbuffsection3[0]=(int)outvaluesection2;
   80bca:	6018      	str	r0, [r3, #0]
 int p;
 for( p =0; p<=M;p++){
 sum3 += ((xbuffsection3[p]*bsection3[p]));
 }
 for(  p=1; p<=N;p++){
 sumy3 += ((ysection3[p]*asection3[p]));
   80bcc:	4c21      	ldr	r4, [pc, #132]	; (80c54 <movingFilter3+0x144>)
   80bce:	6862      	ldr	r2, [r4, #4]
   80bd0:	68a1      	ldr	r1, [r4, #8]
 }
 
 for(o = M; o>1;o--){
 ysection3[o]=ysection3[o-1];
   80bd2:	60e1      	str	r1, [r4, #12]
   80bd4:	60a2      	str	r2, [r4, #8]
 }
 totsumsection3= (((sum3/1000)+(sumy3/1000))*0.09);
 ysection3[1] = totsumsection3;
   80bd6:	fb07 f70e 	mul.w	r7, r7, lr
   80bda:	fb08 7000 	mla	r0, r8, r0, r7
   80bde:	fb86 7300 	smull	r7, r3, r6, r0
   80be2:	17c0      	asrs	r0, r0, #31
   80be4:	ebc0 10a3 	rsb	r0, r0, r3, asr #6
   80be8:	4b1b      	ldr	r3, [pc, #108]	; (80c58 <movingFilter3+0x148>)
   80bea:	fb03 f301 	mul.w	r3, r3, r1
   80bee:	215c      	movs	r1, #92	; 0x5c
   80bf0:	fb01 3302 	mla	r3, r1, r2, r3
   80bf4:	fb86 2603 	smull	r2, r6, r6, r3
   80bf8:	17db      	asrs	r3, r3, #31
   80bfa:	ebc3 13a6 	rsb	r3, r3, r6, asr #6
   80bfe:	4418      	add	r0, r3
   80c00:	4b16      	ldr	r3, [pc, #88]	; (80c5c <movingFilter3+0x14c>)
   80c02:	4798      	blx	r3
   80c04:	a306      	add	r3, pc, #24	; (adr r3, 80c20 <movingFilter3+0x110>)
   80c06:	e9d3 2300 	ldrd	r2, r3, [r3]
   80c0a:	4e15      	ldr	r6, [pc, #84]	; (80c60 <movingFilter3+0x150>)
   80c0c:	47b0      	blx	r6
   80c0e:	4b15      	ldr	r3, [pc, #84]	; (80c64 <movingFilter3+0x154>)
   80c10:	4798      	blx	r3
   80c12:	47a8      	blx	r5
   80c14:	6060      	str	r0, [r4, #4]
 outvaluesection3 = totsumsection3;
 return outvaluesection3;

   80c16:	e8bd 83f8 	ldmia.w	sp!, {r3, r4, r5, r6, r7, r8, r9, pc}
   80c1a:	bf00      	nop
   80c1c:	f3af 8000 	nop.w
   80c20:	70a3d70a 	.word	0x70a3d70a
   80c24:	3fb70a3d 	.word	0x3fb70a3d
   80c28:	20070980 	.word	0x20070980
   80c2c:	200709b0 	.word	0x200709b0
   80c30:	fffffc18 	.word	0xfffffc18
   80c34:	10624dd3 	.word	0x10624dd3
   80c38:	fffffd8c 	.word	0xfffffd8c
   80c3c:	fffffd92 	.word	0xfffffd92
   80c40:	00082df1 	.word	0x00082df1
   80c44:	20070990 	.word	0x20070990
   80c48:	200709c0 	.word	0x200709c0
   80c4c:	fffffd7a 	.word	0xfffffd7a
   80c50:	200709a0 	.word	0x200709a0
   80c54:	200709d0 	.word	0x200709d0
   80c58:	fffffede 	.word	0xfffffede
   80c5c:	00082645 	.word	0x00082645
   80c60:	00082711 	.word	0x00082711
   80c64:	00082b35 	.word	0x00082b35
   80c68:	00082d49 	.word	0x00082d49
   80c6c:	00000000 	.word	0x00000000

00080c70 <movingFilterBandStop1>:

 }; //koefficienterna * 1000

 /*-------------------------------------------------*/

 uint32_t movingFilterBandStop1(uint32_t invalue){
   80c70:	e92d 43f8 	stmdb	sp!, {r3, r4, r5, r6, r7, r8, r9, lr}
 int32_t outvaluesection1, outvaluesection2,outvaluesection3;
 
 //SECTION 1
 int i;
 for(i =M; i>0; i--){
 xbuffsection1[i]=xbuffsection1[i-1];
   80c74:	4b48      	ldr	r3, [pc, #288]	; (80d98 <movingFilterBandStop1+0x128>)
   80c76:	689a      	ldr	r2, [r3, #8]
   80c78:	60da      	str	r2, [r3, #12]
   80c7a:	685e      	ldr	r6, [r3, #4]
   80c7c:	609e      	str	r6, [r3, #8]
   80c7e:	6819      	ldr	r1, [r3, #0]
   80c80:	6059      	str	r1, [r3, #4]
 }
 xbuffsection1[0]=(int)invalue;
   80c82:	6018      	str	r0, [r3, #0]
 
 int j;
 for( j =0; j<=M;j++){
 sum1 += ((xbuffsection1[j]*bsection1[j]));
   80c84:	f44f 787a 	mov.w	r8, #1000	; 0x3e8
   80c88:	4c44      	ldr	r4, [pc, #272]	; (80d9c <movingFilterBandStop1+0x12c>)
   80c8a:	fb04 f101 	mul.w	r1, r4, r1
   80c8e:	fb08 1000 	mla	r0, r8, r0, r1
 }
 for(  j=1; j<=N;j++){
 sumy1 += ((ysection1[j]*asection1[j]));
   80c92:	4d43      	ldr	r5, [pc, #268]	; (80da0 <movingFilterBandStop1+0x130>)
   80c94:	686a      	ldr	r2, [r5, #4]
   80c96:	68ab      	ldr	r3, [r5, #8]
 }
 
 for(i = N; i>1;i--){
 ysection1[i]=ysection1[i-1];
   80c98:	60eb      	str	r3, [r5, #12]
   80c9a:	60aa      	str	r2, [r5, #8]
 }

 totsumsection1= (((sum1/1000)+(sumy1/1000)));
 ysection1[1] = totsumsection1;
   80c9c:	fb08 0106 	mla	r1, r8, r6, r0
   80ca0:	4f40      	ldr	r7, [pc, #256]	; (80da4 <movingFilterBandStop1+0x134>)
   80ca2:	fb87 6001 	smull	r6, r0, r7, r1
   80ca6:	17c9      	asrs	r1, r1, #31
   80ca8:	ebc1 10a0 	rsb	r0, r1, r0, asr #6
   80cac:	eba3 1303 	sub.w	r3, r3, r3, lsl #4
   80cb0:	019b      	lsls	r3, r3, #6
   80cb2:	f240 7199 	movw	r1, #1945	; 0x799
   80cb6:	fb01 3302 	mla	r3, r1, r2, r3
   80cba:	fb87 1203 	smull	r1, r2, r7, r3
   80cbe:	17db      	asrs	r3, r3, #31
   80cc0:	ebc3 13a2 	rsb	r3, r3, r2, asr #6
   80cc4:	f8df 9108 	ldr.w	r9, [pc, #264]	; 80dd0 <movingFilterBandStop1+0x160>
   80cc8:	4418      	add	r0, r3
   80cca:	47c8      	blx	r9
   80ccc:	4e36      	ldr	r6, [pc, #216]	; (80da8 <movingFilterBandStop1+0x138>)
   80cce:	47b0      	blx	r6
   80cd0:	6068      	str	r0, [r5, #4]
 outvaluesection1 = totsumsection1;
 //SECTION 2
 int l;
 for(l =M; l>0; l--){
 xbuffsection2[l]=xbuffsection2[l-1];
   80cd2:	4a36      	ldr	r2, [pc, #216]	; (80dac <movingFilterBandStop1+0x13c>)
   80cd4:	6893      	ldr	r3, [r2, #8]
   80cd6:	60d3      	str	r3, [r2, #12]
   80cd8:	6853      	ldr	r3, [r2, #4]
   80cda:	6093      	str	r3, [r2, #8]
   80cdc:	6811      	ldr	r1, [r2, #0]
   80cde:	6051      	str	r1, [r2, #4]
 }
 xbuffsection2[0]=(int)outvaluesection1;
   80ce0:	6010      	str	r0, [r2, #0]
 int m;
 for( m =0; m<=M;m++){
 sum2 += ((xbuffsection2[m]*bsection2[m]));
   80ce2:	fb04 f101 	mul.w	r1, r4, r1
   80ce6:	fb08 1000 	mla	r0, r8, r0, r1
 }
 for(  m=1; m<=N;m++){
 sumy2 += ((ysection2[m]*asection2[m]));
   80cea:	4d31      	ldr	r5, [pc, #196]	; (80db0 <movingFilterBandStop1+0x140>)
   80cec:	686a      	ldr	r2, [r5, #4]
   80cee:	f8d5 e008 	ldr.w	lr, [r5, #8]
 }
 
 for(l = N; l>1;l--){
 ysection2[l]=ysection2[l-1];
   80cf2:	f8c5 e00c 	str.w	lr, [r5, #12]
   80cf6:	60aa      	str	r2, [r5, #8]
 }
 totsumsection2= (((sum2/1000)+(sumy2/1000)));
 ysection2[1] = totsumsection2;
   80cf8:	fb08 0103 	mla	r1, r8, r3, r0
   80cfc:	fb87 3001 	smull	r3, r0, r7, r1
   80d00:	17c9      	asrs	r1, r1, #31
   80d02:	ebc1 10a0 	rsb	r0, r1, r0, asr #6
   80d06:	4b2b      	ldr	r3, [pc, #172]	; (80db4 <movingFilterBandStop1+0x144>)
   80d08:	fb03 f30e 	mul.w	r3, r3, lr
   80d0c:	f240 71b5 	movw	r1, #1973	; 0x7b5
   80d10:	fb01 3302 	mla	r3, r1, r2, r3
   80d14:	fb87 1203 	smull	r1, r2, r7, r3
   80d18:	17db      	asrs	r3, r3, #31
   80d1a:	ebc3 13a2 	rsb	r3, r3, r2, asr #6
   80d1e:	4418      	add	r0, r3
   80d20:	47c8      	blx	r9
   80d22:	47b0      	blx	r6
   80d24:	6068      	str	r0, [r5, #4]
 outvaluesection2 = totsumsection2;

 //SECTION 3
 int o;
 for(o =M; o>0; o--){
 xbuffsection3[o]=xbuffsection3[o-1];
   80d26:	4924      	ldr	r1, [pc, #144]	; (80db8 <movingFilterBandStop1+0x148>)
   80d28:	688b      	ldr	r3, [r1, #8]
   80d2a:	60cb      	str	r3, [r1, #12]
   80d2c:	684a      	ldr	r2, [r1, #4]
   80d2e:	608a      	str	r2, [r1, #8]
   80d30:	680b      	ldr	r3, [r1, #0]
   80d32:	604b      	str	r3, [r1, #4]
 }
 xbuffsection3[0]=(int)outvaluesection2;
   80d34:	6008      	str	r0, [r1, #0]
 int p;
 for( p =0; p<=M;p++){
 sum3 += ((xbuffsection3[p]*bsection3[p]));
   80d36:	fb04 f403 	mul.w	r4, r4, r3
   80d3a:	fb08 4300 	mla	r3, r8, r0, r4
 }
 for(  p=1; p<=N;p++){
 sumy3 += ((ysection3[p]*asection3[p]));
   80d3e:	4d1f      	ldr	r5, [pc, #124]	; (80dbc <movingFilterBandStop1+0x14c>)
   80d40:	686c      	ldr	r4, [r5, #4]
   80d42:	68a8      	ldr	r0, [r5, #8]
 }
 
 for(o = M; o>1;o--){
 ysection3[o]=ysection3[o-1];
   80d44:	60e8      	str	r0, [r5, #12]
   80d46:	60ac      	str	r4, [r5, #8]
 }
 totsumsection3= (((sum3/1000)+(sumy3/1000))*0.65);
 ysection3[1] = totsumsection3;
   80d48:	491d      	ldr	r1, [pc, #116]	; (80dc0 <movingFilterBandStop1+0x150>)
   80d4a:	fb01 f100 	mul.w	r1, r1, r0
   80d4e:	f240 708b 	movw	r0, #1931	; 0x78b
   80d52:	fb00 1104 	mla	r1, r0, r4, r1
   80d56:	fb87 4001 	smull	r4, r0, r7, r1
   80d5a:	17c9      	asrs	r1, r1, #31
   80d5c:	ebc1 10a0 	rsb	r0, r1, r0, asr #6
   80d60:	fb08 3302 	mla	r3, r8, r2, r3
   80d64:	fb87 2703 	smull	r2, r7, r7, r3
   80d68:	17db      	asrs	r3, r3, #31
   80d6a:	ebc3 13a7 	rsb	r3, r3, r7, asr #6
   80d6e:	4418      	add	r0, r3
   80d70:	4b14      	ldr	r3, [pc, #80]	; (80dc4 <movingFilterBandStop1+0x154>)
   80d72:	4798      	blx	r3
   80d74:	a306      	add	r3, pc, #24	; (adr r3, 80d90 <movingFilterBandStop1+0x120>)
   80d76:	e9d3 2300 	ldrd	r2, r3, [r3]
   80d7a:	4c13      	ldr	r4, [pc, #76]	; (80dc8 <movingFilterBandStop1+0x158>)
   80d7c:	47a0      	blx	r4
   80d7e:	4b13      	ldr	r3, [pc, #76]	; (80dcc <movingFilterBandStop1+0x15c>)
   80d80:	4798      	blx	r3
   80d82:	47b0      	blx	r6
   80d84:	6068      	str	r0, [r5, #4]
 outvaluesection3 = totsumsection3;
 return outvaluesection3;

   80d86:	e8bd 83f8 	ldmia.w	sp!, {r3, r4, r5, r6, r7, r8, r9, pc}
   80d8a:	bf00      	nop
   80d8c:	f3af 8000 	nop.w
   80d90:	cccccccd 	.word	0xcccccccd
   80d94:	3fe4cccc 	.word	0x3fe4cccc
   80d98:	200709e0 	.word	0x200709e0
   80d9c:	fffff838 	.word	0xfffff838
   80da0:	20070a10 	.word	0x20070a10
   80da4:	10624dd3 	.word	0x10624dd3
   80da8:	00082df1 	.word	0x00082df1
   80dac:	200709f0 	.word	0x200709f0
   80db0:	20070a20 	.word	0x20070a20
   80db4:	fffffc2e 	.word	0xfffffc2e
   80db8:	20070a00 	.word	0x20070a00
   80dbc:	20070a30 	.word	0x20070a30
   80dc0:	fffffc55 	.word	0xfffffc55
   80dc4:	00082645 	.word	0x00082645
   80dc8:	00082711 	.word	0x00082711
   80dcc:	00082b35 	.word	0x00082b35
   80dd0:	00082d49 	.word	0x00082d49
   80dd4:	00000000 	.word	0x00000000

00080dd8 <fiveHToOneKhz>:


/*-------------------------------------------------*/

//500-1000 Hz
uint32_t fiveHToOneKhz(uint32_t invalue){
   80dd8:	e92d 43f8 	stmdb	sp!, {r3, r4, r5, r6, r7, r8, r9, lr}
	int32_t outvaluesection1, outvaluesection2,outvaluesection3;
	
	//SECTION 1
	int i;
	for(i =M; i>0; i--){
		xbuffsection1[i]=xbuffsection1[i-1];
   80ddc:	4b46      	ldr	r3, [pc, #280]	; (80ef8 <fiveHToOneKhz+0x120>)
   80dde:	689a      	ldr	r2, [r3, #8]
   80de0:	60da      	str	r2, [r3, #12]
   80de2:	6859      	ldr	r1, [r3, #4]
   80de4:	6099      	str	r1, [r3, #8]
   80de6:	681a      	ldr	r2, [r3, #0]
   80de8:	605a      	str	r2, [r3, #4]
	}
	xbuffsection1[0]=(int)invalue;
   80dea:	6018      	str	r0, [r3, #0]
	
	int j;
	for( j =0; j<=M;j++){
		sum1 += ((xbuffsection1[j]*bsection1[j]));
   80dec:	f44f 787a 	mov.w	r8, #1000	; 0x3e8
	}
	for(  j=1; j<=N;j++){
		sumy1 += ((ysection1[j]*asection1[j]));
   80df0:	4e42      	ldr	r6, [pc, #264]	; (80efc <fiveHToOneKhz+0x124>)
   80df2:	6872      	ldr	r2, [r6, #4]
   80df4:	68b3      	ldr	r3, [r6, #8]
	}
	
	for(i = N; i>1;i--){
		ysection1[i]=ysection1[i-1];
   80df6:	60f3      	str	r3, [r6, #12]
   80df8:	60b2      	str	r2, [r6, #8]
	}

	totsumsection1= (((sum1/1000)+(sumy1/1000)));
	ysection1[1] = totsumsection1;
   80dfa:	4f41      	ldr	r7, [pc, #260]	; (80f00 <fiveHToOneKhz+0x128>)
   80dfc:	fb07 f101 	mul.w	r1, r7, r1
   80e00:	fb08 1000 	mla	r0, r8, r0, r1
   80e04:	4c3f      	ldr	r4, [pc, #252]	; (80f04 <fiveHToOneKhz+0x12c>)
   80e06:	fb84 5100 	smull	r5, r1, r4, r0
   80e0a:	17c0      	asrs	r0, r0, #31
   80e0c:	ebc0 10a1 	rsb	r0, r0, r1, asr #6
   80e10:	ebc3 03c3 	rsb	r3, r3, r3, lsl #3
   80e14:	eb03 13c3 	add.w	r3, r3, r3, lsl #7
   80e18:	425b      	negs	r3, r3
   80e1a:	f240 7119 	movw	r1, #1817	; 0x719
   80e1e:	fb01 3302 	mla	r3, r1, r2, r3
   80e22:	fb84 1203 	smull	r1, r2, r4, r3
   80e26:	17db      	asrs	r3, r3, #31
   80e28:	ebc3 13a2 	rsb	r3, r3, r2, asr #6
   80e2c:	f8df 9100 	ldr.w	r9, [pc, #256]	; 80f30 <fiveHToOneKhz+0x158>
   80e30:	4418      	add	r0, r3
   80e32:	47c8      	blx	r9
   80e34:	4d34      	ldr	r5, [pc, #208]	; (80f08 <fiveHToOneKhz+0x130>)
   80e36:	47a8      	blx	r5
   80e38:	6070      	str	r0, [r6, #4]
	outvaluesection1 = totsumsection1;
	//SECTION 2
	int l;
	for(l =M; l>0; l--){
		xbuffsection2[l]=xbuffsection2[l-1];
   80e3a:	4b34      	ldr	r3, [pc, #208]	; (80f0c <fiveHToOneKhz+0x134>)
   80e3c:	689a      	ldr	r2, [r3, #8]
   80e3e:	60da      	str	r2, [r3, #12]
   80e40:	685a      	ldr	r2, [r3, #4]
   80e42:	609a      	str	r2, [r3, #8]
   80e44:	6819      	ldr	r1, [r3, #0]
   80e46:	6059      	str	r1, [r3, #4]
	}
	xbuffsection2[0]=(int)outvaluesection1;
   80e48:	6018      	str	r0, [r3, #0]
	int m;
	for( m =0; m<=M;m++){
		sum2 += ((xbuffsection2[m]*bsection2[m]));
	}
	for(  m=1; m<=N;m++){
		sumy2 += ((ysection2[m]*asection2[m]));
   80e4a:	4e31      	ldr	r6, [pc, #196]	; (80f10 <fiveHToOneKhz+0x138>)
   80e4c:	f8d6 e004 	ldr.w	lr, [r6, #4]
   80e50:	ebce 110e 	rsb	r1, lr, lr, lsl #4
   80e54:	68b3      	ldr	r3, [r6, #8]
	}
	
	for(l = N; l>1;l--){
		ysection2[l]=ysection2[l-1];
   80e56:	60f3      	str	r3, [r6, #12]
   80e58:	f8c6 e008 	str.w	lr, [r6, #8]
	}
	totsumsection2= (((sum2/1000)+(sumy2/1000)));
	ysection2[1] = totsumsection2;
   80e5c:	fb07 f202 	mul.w	r2, r7, r2
   80e60:	fb08 2000 	mla	r0, r8, r0, r2
   80e64:	fb84 e200 	smull	lr, r2, r4, r0
   80e68:	17c0      	asrs	r0, r0, #31
   80e6a:	ebc0 10a2 	rsb	r0, r0, r2, asr #6
   80e6e:	4a29      	ldr	r2, [pc, #164]	; (80f14 <fiveHToOneKhz+0x13c>)
   80e70:	fb02 f303 	mul.w	r3, r2, r3
   80e74:	eb03 13c1 	add.w	r3, r3, r1, lsl #7
   80e78:	fb84 1203 	smull	r1, r2, r4, r3
   80e7c:	17db      	asrs	r3, r3, #31
   80e7e:	ebc3 13a2 	rsb	r3, r3, r2, asr #6
   80e82:	4418      	add	r0, r3
   80e84:	47c8      	blx	r9
   80e86:	47a8      	blx	r5
   80e88:	6070      	str	r0, [r6, #4]
	outvaluesection2 = totsumsection2;

	//SECTION 3
	int o;
	for(o =M; o>0; o--){
		xbuffsection3[o]=xbuffsection3[o-1];
   80e8a:	4b23      	ldr	r3, [pc, #140]	; (80f18 <fiveHToOneKhz+0x140>)
   80e8c:	689a      	ldr	r2, [r3, #8]
   80e8e:	60da      	str	r2, [r3, #12]
   80e90:	f8d3 e004 	ldr.w	lr, [r3, #4]
   80e94:	f8c3 e008 	str.w	lr, [r3, #8]
   80e98:	681a      	ldr	r2, [r3, #0]
   80e9a:	605a      	str	r2, [r3, #4]
	}
	xbuffsection3[0]=(int)outvaluesection2;
   80e9c:	6018      	str	r0, [r3, #0]
	int p;
	for( p =0; p<=M;p++){
		sum3 += ((xbuffsection3[p]*bsection3[p]));
	}
	for(  p=1; p<=N;p++){
		sumy3 += ((ysection3[p]*asection3[p]));
   80e9e:	4e1f      	ldr	r6, [pc, #124]	; (80f1c <fiveHToOneKhz+0x144>)
   80ea0:	6872      	ldr	r2, [r6, #4]
   80ea2:	68b1      	ldr	r1, [r6, #8]
	}
	
	for(o = M; o>1;o--){
		ysection3[o]=ysection3[o-1];
   80ea4:	60f1      	str	r1, [r6, #12]
   80ea6:	60b2      	str	r2, [r6, #8]
	}
	totsumsection3= (((sum3/1000)+(sumy3/1000))*0.01);
	ysection3[1] = totsumsection3;
   80ea8:	fb07 f70e 	mul.w	r7, r7, lr
   80eac:	fb08 7000 	mla	r0, r8, r0, r7
   80eb0:	fb84 7300 	smull	r7, r3, r4, r0
   80eb4:	17c0      	asrs	r0, r0, #31
   80eb6:	ebc0 10a3 	rsb	r0, r0, r3, asr #6
   80eba:	4b19      	ldr	r3, [pc, #100]	; (80f20 <fiveHToOneKhz+0x148>)
   80ebc:	fb03 f301 	mul.w	r3, r3, r1
   80ec0:	f44f 61e2 	mov.w	r1, #1808	; 0x710
   80ec4:	fb01 3302 	mla	r3, r1, r2, r3
   80ec8:	fb84 2403 	smull	r2, r4, r4, r3
   80ecc:	17db      	asrs	r3, r3, #31
   80ece:	ebc3 13a4 	rsb	r3, r3, r4, asr #6
   80ed2:	4418      	add	r0, r3
   80ed4:	4b13      	ldr	r3, [pc, #76]	; (80f24 <fiveHToOneKhz+0x14c>)
   80ed6:	4798      	blx	r3
   80ed8:	a305      	add	r3, pc, #20	; (adr r3, 80ef0 <fiveHToOneKhz+0x118>)
   80eda:	e9d3 2300 	ldrd	r2, r3, [r3]
   80ede:	4c12      	ldr	r4, [pc, #72]	; (80f28 <fiveHToOneKhz+0x150>)
   80ee0:	47a0      	blx	r4
   80ee2:	4b12      	ldr	r3, [pc, #72]	; (80f2c <fiveHToOneKhz+0x154>)
   80ee4:	4798      	blx	r3
   80ee6:	47a8      	blx	r5
   80ee8:	6070      	str	r0, [r6, #4]
	outvaluesection3 = totsumsection3;
	return outvaluesection3;
   80eea:	e8bd 83f8 	ldmia.w	sp!, {r3, r4, r5, r6, r7, r8, r9, pc}
   80eee:	bf00      	nop
   80ef0:	47ae147b 	.word	0x47ae147b
   80ef4:	3f847ae1 	.word	0x3f847ae1
   80ef8:	20070a40 	.word	0x20070a40
   80efc:	20070a70 	.word	0x20070a70
   80f00:	fffffc18 	.word	0xfffffc18
   80f04:	10624dd3 	.word	0x10624dd3
   80f08:	00082df1 	.word	0x00082df1
   80f0c:	20070a50 	.word	0x20070a50
   80f10:	20070a80 	.word	0x20070a80
   80f14:	fffffc4e 	.word	0xfffffc4e
   80f18:	20070a60 	.word	0x20070a60
   80f1c:	20070a90 	.word	0x20070a90
   80f20:	fffffcaa 	.word	0xfffffcaa
   80f24:	00082645 	.word	0x00082645
   80f28:	00082711 	.word	0x00082711
   80f2c:	00082b35 	.word	0x00082b35
   80f30:	00082d49 	.word	0x00082d49
   80f34:	00000000 	.word	0x00000000

00080f38 <fourKTo8Khz>:
	 
 }; //koefficienterna * 1000
 /*-------------------------------------------------*/

//4000-8000 Hz
uint32_t fourKTo8Khz(uint32_t invalue){
   80f38:	e92d 43f8 	stmdb	sp!, {r3, r4, r5, r6, r7, r8, r9, lr}
	int32_t outvaluesection1, outvaluesection2,outvaluesection3;
	
	//SECTION 1
	int i;
	for(i =M; i>0; i--){
		xbuffsection1[i]=xbuffsection1[i-1];
   80f3c:	4b46      	ldr	r3, [pc, #280]	; (81058 <fourKTo8Khz+0x120>)
   80f3e:	689a      	ldr	r2, [r3, #8]
   80f40:	60da      	str	r2, [r3, #12]
   80f42:	6859      	ldr	r1, [r3, #4]
   80f44:	6099      	str	r1, [r3, #8]
   80f46:	681a      	ldr	r2, [r3, #0]
   80f48:	605a      	str	r2, [r3, #4]
	}
	xbuffsection1[0]=(int)invalue;
   80f4a:	6018      	str	r0, [r3, #0]
	
	int j;
	for( j =0; j<=M;j++){
		sum1 += ((xbuffsection1[j]*bsection1[j]));
   80f4c:	f44f 787a 	mov.w	r8, #1000	; 0x3e8
	}
	for(  j=1; j<=N;j++){
		sumy1 += ((ysection1[j]*asection1[j]));
   80f50:	4c42      	ldr	r4, [pc, #264]	; (8105c <fourKTo8Khz+0x124>)
   80f52:	6862      	ldr	r2, [r4, #4]
   80f54:	68a5      	ldr	r5, [r4, #8]
	}
	
	for(i = N; i>1;i--){
		ysection1[i]=ysection1[i-1];
   80f56:	60e5      	str	r5, [r4, #12]
   80f58:	60a2      	str	r2, [r4, #8]
	}

	totsumsection1= (((sum1/1000)+(sumy1/1000)));
	ysection1[1] = totsumsection1;
   80f5a:	4f41      	ldr	r7, [pc, #260]	; (81060 <fourKTo8Khz+0x128>)
   80f5c:	fb07 f101 	mul.w	r1, r7, r1
   80f60:	fb08 1000 	mla	r0, r8, r0, r1
   80f64:	4e3f      	ldr	r6, [pc, #252]	; (81064 <fourKTo8Khz+0x12c>)
   80f66:	fb86 1300 	smull	r1, r3, r6, r0
   80f6a:	17c0      	asrs	r0, r0, #31
   80f6c:	ebc0 10a3 	rsb	r0, r0, r3, asr #6
   80f70:	4b3d      	ldr	r3, [pc, #244]	; (81068 <fourKTo8Khz+0x130>)
   80f72:	fb03 f305 	mul.w	r3, r3, r5
   80f76:	493d      	ldr	r1, [pc, #244]	; (8106c <fourKTo8Khz+0x134>)
   80f78:	fb01 3302 	mla	r3, r1, r2, r3
   80f7c:	fb86 1203 	smull	r1, r2, r6, r3
   80f80:	17db      	asrs	r3, r3, #31
   80f82:	ebc3 13a2 	rsb	r3, r3, r2, asr #6
   80f86:	f8df 910c 	ldr.w	r9, [pc, #268]	; 81094 <fourKTo8Khz+0x15c>
   80f8a:	4418      	add	r0, r3
   80f8c:	47c8      	blx	r9
   80f8e:	4d38      	ldr	r5, [pc, #224]	; (81070 <fourKTo8Khz+0x138>)
   80f90:	47a8      	blx	r5
   80f92:	6060      	str	r0, [r4, #4]
	outvaluesection1 = totsumsection1;
	//SECTION 2
	int l;
	for(l =M; l>0; l--){
		xbuffsection2[l]=xbuffsection2[l-1];
   80f94:	4b37      	ldr	r3, [pc, #220]	; (81074 <fourKTo8Khz+0x13c>)
   80f96:	689a      	ldr	r2, [r3, #8]
   80f98:	60da      	str	r2, [r3, #12]
   80f9a:	f8d3 e004 	ldr.w	lr, [r3, #4]
   80f9e:	f8c3 e008 	str.w	lr, [r3, #8]
   80fa2:	681a      	ldr	r2, [r3, #0]
   80fa4:	605a      	str	r2, [r3, #4]
	}
	xbuffsection2[0]=(int)outvaluesection1;
   80fa6:	6018      	str	r0, [r3, #0]
	int m;
	for( m =0; m<=M;m++){
		sum2 += ((xbuffsection2[m]*bsection2[m]));
	}
	for(  m=1; m<=N;m++){
		sumy2 += ((ysection2[m]*asection2[m]));
   80fa8:	4c33      	ldr	r4, [pc, #204]	; (81078 <fourKTo8Khz+0x140>)
   80faa:	6861      	ldr	r1, [r4, #4]
   80fac:	68a2      	ldr	r2, [r4, #8]
	}
	
	for(l = N; l>1;l--){
		ysection2[l]=ysection2[l-1];
   80fae:	60e2      	str	r2, [r4, #12]
   80fb0:	60a1      	str	r1, [r4, #8]
	}
	totsumsection2= (((sum2/1000)+(sumy2/1000)));
	ysection2[1] = totsumsection2;
   80fb2:	fb07 fe0e 	mul.w	lr, r7, lr
   80fb6:	fb08 e000 	mla	r0, r8, r0, lr
   80fba:	fb86 e300 	smull	lr, r3, r6, r0
   80fbe:	17c0      	asrs	r0, r0, #31
   80fc0:	ebc0 10a3 	rsb	r0, r0, r3, asr #6
   80fc4:	ebc2 53c2 	rsb	r3, r2, r2, lsl #23
   80fc8:	ebc2 1243 	rsb	r2, r2, r3, lsl #5
   80fcc:	0112      	lsls	r2, r2, #4
   80fce:	f44f 73c6 	mov.w	r3, #396	; 0x18c
   80fd2:	fb03 2301 	mla	r3, r3, r1, r2
   80fd6:	fb86 1203 	smull	r1, r2, r6, r3
   80fda:	17db      	asrs	r3, r3, #31
   80fdc:	ebc3 13a2 	rsb	r3, r3, r2, asr #6
   80fe0:	4418      	add	r0, r3
   80fe2:	47c8      	blx	r9
   80fe4:	47a8      	blx	r5
   80fe6:	6060      	str	r0, [r4, #4]
	outvaluesection2 = totsumsection2;

	//SECTION 3
	int o;
	for(o =M; o>0; o--){
		xbuffsection3[o]=xbuffsection3[o-1];
   80fe8:	4b24      	ldr	r3, [pc, #144]	; (8107c <fourKTo8Khz+0x144>)
   80fea:	689a      	ldr	r2, [r3, #8]
   80fec:	60da      	str	r2, [r3, #12]
   80fee:	f8d3 e004 	ldr.w	lr, [r3, #4]
   80ff2:	f8c3 e008 	str.w	lr, [r3, #8]
   80ff6:	681a      	ldr	r2, [r3, #0]
   80ff8:	605a      	str	r2, [r3, #4]
	}
	xbuffsection3[0]=(int)outvaluesection2;
   80ffa:	6018      	str	r0, [r3, #0]
	int p;
	for( p =0; p<=M;p++){
		sum3 += ((xbuffsection3[p]*bsection3[p]));
	}
	for(  p=1; p<=N;p++){
		sumy3 += ((ysection3[p]*asection3[p]));
   80ffc:	4c20      	ldr	r4, [pc, #128]	; (81080 <fourKTo8Khz+0x148>)
   80ffe:	6862      	ldr	r2, [r4, #4]
   81000:	68a1      	ldr	r1, [r4, #8]
	}
	
	for(o = M; o>1;o--){
		ysection3[o]=ysection3[o-1];
   81002:	60e1      	str	r1, [r4, #12]
   81004:	60a2      	str	r2, [r4, #8]
	}
	totsumsection3= (((sum3/1000)+(sumy3/1000))*0.1);
	ysection3[1] = totsumsection3;
   81006:	fb07 f70e 	mul.w	r7, r7, lr
   8100a:	fb08 7000 	mla	r0, r8, r0, r7
   8100e:	fb86 7300 	smull	r7, r3, r6, r0
   81012:	17c0      	asrs	r0, r0, #31
   81014:	ebc0 10a3 	rsb	r0, r0, r3, asr #6
   81018:	f06f 039d 	mvn.w	r3, #157	; 0x9d
   8101c:	fb03 f301 	mul.w	r3, r3, r1
   81020:	4918      	ldr	r1, [pc, #96]	; (81084 <fourKTo8Khz+0x14c>)
   81022:	fb01 3302 	mla	r3, r1, r2, r3
   81026:	fb86 2603 	smull	r2, r6, r6, r3
   8102a:	17db      	asrs	r3, r3, #31
   8102c:	ebc3 13a6 	rsb	r3, r3, r6, asr #6
   81030:	4418      	add	r0, r3
   81032:	4b15      	ldr	r3, [pc, #84]	; (81088 <fourKTo8Khz+0x150>)
   81034:	4798      	blx	r3
   81036:	a306      	add	r3, pc, #24	; (adr r3, 81050 <fourKTo8Khz+0x118>)
   81038:	e9d3 2300 	ldrd	r2, r3, [r3]
   8103c:	4e13      	ldr	r6, [pc, #76]	; (8108c <fourKTo8Khz+0x154>)
   8103e:	47b0      	blx	r6
   81040:	4b13      	ldr	r3, [pc, #76]	; (81090 <fourKTo8Khz+0x158>)
   81042:	4798      	blx	r3
   81044:	47a8      	blx	r5
   81046:	6060      	str	r0, [r4, #4]
	outvaluesection3 = totsumsection3;
	return outvaluesection3;
   81048:	e8bd 83f8 	ldmia.w	sp!, {r3, r4, r5, r6, r7, r8, r9, pc}
   8104c:	f3af 8000 	nop.w
   81050:	9999999a 	.word	0x9999999a
   81054:	3fb99999 	.word	0x3fb99999
   81058:	20070aa0 	.word	0x20070aa0
   8105c:	20070ad0 	.word	0x20070ad0
   81060:	fffffc18 	.word	0xfffffc18
   81064:	10624dd3 	.word	0x10624dd3
   81068:	fffffd60 	.word	0xfffffd60
   8106c:	fffffad8 	.word	0xfffffad8
   81070:	00082df1 	.word	0x00082df1
   81074:	20070ab0 	.word	0x20070ab0
   81078:	20070ae0 	.word	0x20070ae0
   8107c:	20070ac0 	.word	0x20070ac0
   81080:	20070af0 	.word	0x20070af0
   81084:	fffffe46 	.word	0xfffffe46
   81088:	00082645 	.word	0x00082645
   8108c:	00082711 	.word	0x00082711
   81090:	00082b35 	.word	0x00082b35
   81094:	00082d49 	.word	0x00082d49

00081098 <oneKTo2KHz>:


/*-------------------------------------------------*/

//1000-2000 Hz
uint32_t oneKTo2KHz(uint32_t invalue){
   81098:	e92d 43f8 	stmdb	sp!, {r3, r4, r5, r6, r7, r8, r9, lr}
	int32_t outvaluesection1, outvaluesection2,outvaluesection3;
	
	//SECTION 1
	int i;
	for(i =M; i>0; i--){
		xbuffsection1[i]=xbuffsection1[i-1];
   8109c:	4b46      	ldr	r3, [pc, #280]	; (811b8 <oneKTo2KHz+0x120>)
   8109e:	689a      	ldr	r2, [r3, #8]
   810a0:	60da      	str	r2, [r3, #12]
   810a2:	6859      	ldr	r1, [r3, #4]
   810a4:	6099      	str	r1, [r3, #8]
   810a6:	681a      	ldr	r2, [r3, #0]
   810a8:	605a      	str	r2, [r3, #4]
	}
	xbuffsection1[0]=(int)invalue;
   810aa:	6018      	str	r0, [r3, #0]
	
	int j;
	for( j =0; j<=M;j++){
		sum1 += ((xbuffsection1[j]*bsection1[j]));
   810ac:	f44f 787a 	mov.w	r8, #1000	; 0x3e8
	}
	for(  j=1; j<=N;j++){
		sumy1 += ((ysection1[j]*asection1[j]));
   810b0:	4e42      	ldr	r6, [pc, #264]	; (811bc <oneKTo2KHz+0x124>)
   810b2:	6872      	ldr	r2, [r6, #4]
   810b4:	68b5      	ldr	r5, [r6, #8]
	}
	
	for(i = N; i>1;i--){
		ysection1[i]=ysection1[i-1];
   810b6:	60f5      	str	r5, [r6, #12]
   810b8:	60b2      	str	r2, [r6, #8]
	}

	totsumsection1= (((sum1/1000)+(sumy1/1000)));
	ysection1[1] = totsumsection1;
   810ba:	4f41      	ldr	r7, [pc, #260]	; (811c0 <oneKTo2KHz+0x128>)
   810bc:	fb07 f101 	mul.w	r1, r7, r1
   810c0:	fb08 1000 	mla	r0, r8, r0, r1
   810c4:	4c3f      	ldr	r4, [pc, #252]	; (811c4 <oneKTo2KHz+0x12c>)
   810c6:	fb84 1300 	smull	r1, r3, r4, r0
   810ca:	17c0      	asrs	r0, r0, #31
   810cc:	ebc0 10a3 	rsb	r0, r0, r3, asr #6
   810d0:	4b3d      	ldr	r3, [pc, #244]	; (811c8 <oneKTo2KHz+0x130>)
   810d2:	fb03 f305 	mul.w	r3, r3, r5
   810d6:	f240 51d9 	movw	r1, #1497	; 0x5d9
   810da:	fb01 3302 	mla	r3, r1, r2, r3
   810de:	fb84 1203 	smull	r1, r2, r4, r3
   810e2:	17db      	asrs	r3, r3, #31
   810e4:	ebc3 13a2 	rsb	r3, r3, r2, asr #6
   810e8:	f8df 9104 	ldr.w	r9, [pc, #260]	; 811f0 <oneKTo2KHz+0x158>
   810ec:	4418      	add	r0, r3
   810ee:	47c8      	blx	r9
   810f0:	4d36      	ldr	r5, [pc, #216]	; (811cc <oneKTo2KHz+0x134>)
   810f2:	47a8      	blx	r5
   810f4:	6070      	str	r0, [r6, #4]
	outvaluesection1 = totsumsection1;
	//SECTION 2
	int l;
	for(l =M; l>0; l--){
		xbuffsection2[l]=xbuffsection2[l-1];
   810f6:	4b36      	ldr	r3, [pc, #216]	; (811d0 <oneKTo2KHz+0x138>)
   810f8:	689a      	ldr	r2, [r3, #8]
   810fa:	60da      	str	r2, [r3, #12]
   810fc:	6859      	ldr	r1, [r3, #4]
   810fe:	6099      	str	r1, [r3, #8]
   81100:	681a      	ldr	r2, [r3, #0]
   81102:	605a      	str	r2, [r3, #4]
	}
	xbuffsection2[0]=(int)outvaluesection1;
   81104:	6018      	str	r0, [r3, #0]
	int m;
	for( m =0; m<=M;m++){
		sum2 += ((xbuffsection2[m]*bsection2[m]));
	}
	for(  m=1; m<=N;m++){
		sumy2 += ((ysection2[m]*asection2[m]));
   81106:	4e33      	ldr	r6, [pc, #204]	; (811d4 <oneKTo2KHz+0x13c>)
   81108:	f8d6 e004 	ldr.w	lr, [r6, #4]
   8110c:	ebce 03ce 	rsb	r3, lr, lr, lsl #3
   81110:	eb0e 2303 	add.w	r3, lr, r3, lsl #8
   81114:	68b2      	ldr	r2, [r6, #8]
	}
	
	for(l = N; l>1;l--){
		ysection2[l]=ysection2[l-1];
   81116:	60f2      	str	r2, [r6, #12]
   81118:	f8c6 e008 	str.w	lr, [r6, #8]
	}
	totsumsection2= (((sum2/1000)+(sumy2/1000)));
	ysection2[1] = totsumsection2;
   8111c:	fb07 f101 	mul.w	r1, r7, r1
   81120:	fb08 1000 	mla	r0, r8, r0, r1
   81124:	fb84 e100 	smull	lr, r1, r4, r0
   81128:	17c0      	asrs	r0, r0, #31
   8112a:	ebc0 10a1 	rsb	r0, r0, r1, asr #6
   8112e:	f46f 715f 	mvn.w	r1, #892	; 0x37c
   81132:	fb01 3302 	mla	r3, r1, r2, r3
   81136:	fb84 1203 	smull	r1, r2, r4, r3
   8113a:	17db      	asrs	r3, r3, #31
   8113c:	ebc3 13a2 	rsb	r3, r3, r2, asr #6
   81140:	4418      	add	r0, r3
   81142:	47c8      	blx	r9
   81144:	47a8      	blx	r5
   81146:	6070      	str	r0, [r6, #4]
	outvaluesection2 = totsumsection2;

	//SECTION 3
	int o;
	for(o =M; o>0; o--){
		xbuffsection3[o]=xbuffsection3[o-1];
   81148:	4b23      	ldr	r3, [pc, #140]	; (811d8 <oneKTo2KHz+0x140>)
   8114a:	689a      	ldr	r2, [r3, #8]
   8114c:	60da      	str	r2, [r3, #12]
   8114e:	f8d3 e004 	ldr.w	lr, [r3, #4]
   81152:	f8c3 e008 	str.w	lr, [r3, #8]
   81156:	681a      	ldr	r2, [r3, #0]
   81158:	605a      	str	r2, [r3, #4]
	}
	xbuffsection3[0]=(int)outvaluesection2;
   8115a:	6018      	str	r0, [r3, #0]
	int p;
	for( p =0; p<=M;p++){
		sum3 += ((xbuffsection3[p]*bsection3[p]));
	}
	for(  p=1; p<=N;p++){
		sumy3 += ((ysection3[p]*asection3[p]));
   8115c:	4e1f      	ldr	r6, [pc, #124]	; (811dc <oneKTo2KHz+0x144>)
   8115e:	6872      	ldr	r2, [r6, #4]
   81160:	68b1      	ldr	r1, [r6, #8]
	}
	
	for(o = M; o>1;o--){
		ysection3[o]=ysection3[o-1];
   81162:	60f1      	str	r1, [r6, #12]
   81164:	60b2      	str	r2, [r6, #8]
	}
	totsumsection3= (((sum3/1000)+(sumy3/1000))*0.019);
	ysection3[1] = totsumsection3;
   81166:	fb07 f70e 	mul.w	r7, r7, lr
   8116a:	fb08 7000 	mla	r0, r8, r0, r7
   8116e:	fb84 7300 	smull	r7, r3, r4, r0
   81172:	17c0      	asrs	r0, r0, #31
   81174:	ebc0 10a3 	rsb	r0, r0, r3, asr #6
   81178:	4b19      	ldr	r3, [pc, #100]	; (811e0 <oneKTo2KHz+0x148>)
   8117a:	fb03 f301 	mul.w	r3, r3, r1
   8117e:	f240 6115 	movw	r1, #1557	; 0x615
   81182:	fb01 3302 	mla	r3, r1, r2, r3
   81186:	fb84 2403 	smull	r2, r4, r4, r3
   8118a:	17db      	asrs	r3, r3, #31
   8118c:	ebc3 13a4 	rsb	r3, r3, r4, asr #6
   81190:	4418      	add	r0, r3
   81192:	4b14      	ldr	r3, [pc, #80]	; (811e4 <oneKTo2KHz+0x14c>)
   81194:	4798      	blx	r3
   81196:	a306      	add	r3, pc, #24	; (adr r3, 811b0 <oneKTo2KHz+0x118>)
   81198:	e9d3 2300 	ldrd	r2, r3, [r3]
   8119c:	4c12      	ldr	r4, [pc, #72]	; (811e8 <oneKTo2KHz+0x150>)
   8119e:	47a0      	blx	r4
   811a0:	4b12      	ldr	r3, [pc, #72]	; (811ec <oneKTo2KHz+0x154>)
   811a2:	4798      	blx	r3
   811a4:	47a8      	blx	r5
   811a6:	6070      	str	r0, [r6, #4]
	outvaluesection3 = totsumsection3;
	return outvaluesection3;
   811a8:	e8bd 83f8 	ldmia.w	sp!, {r3, r4, r5, r6, r7, r8, r9, pc}
   811ac:	f3af 8000 	nop.w
   811b0:	6a7ef9db 	.word	0x6a7ef9db
   811b4:	3f9374bc 	.word	0x3f9374bc
   811b8:	20070b00 	.word	0x20070b00
   811bc:	20070b30 	.word	0x20070b30
   811c0:	fffffc18 	.word	0xfffffc18
   811c4:	10624dd3 	.word	0x10624dd3
   811c8:	fffffccd 	.word	0xfffffccd
   811cc:	00082df1 	.word	0x00082df1
   811d0:	20070b10 	.word	0x20070b10
   811d4:	20070b40 	.word	0x20070b40
   811d8:	20070b20 	.word	0x20070b20
   811dc:	20070b50 	.word	0x20070b50
   811e0:	fffffd2a 	.word	0xfffffd2a
   811e4:	00082645 	.word	0x00082645
   811e8:	00082711 	.word	0x00082711
   811ec:	00082b35 	.word	0x00082b35
   811f0:	00082d49 	.word	0x00082d49
   811f4:	00000000 	.word	0x00000000

000811f8 <movingFilterBandStop2>:

 }; //koefficienterna * 1000

 /*-------------------------------------------------*/

 uint32_t movingFilterBandStop2(uint32_t invalue){
   811f8:	e92d 43f8 	stmdb	sp!, {r3, r4, r5, r6, r7, r8, r9, lr}
 int32_t outvaluesection1, outvaluesection2,outvaluesection3;
 
 //SECTION 1
 int i;
 for(i =M; i>0; i--){
 xbuffsection1[i]=xbuffsection1[i-1];
   811fc:	4b48      	ldr	r3, [pc, #288]	; (81320 <movingFilterBandStop2+0x128>)
   811fe:	689a      	ldr	r2, [r3, #8]
   81200:	60da      	str	r2, [r3, #12]
   81202:	685e      	ldr	r6, [r3, #4]
   81204:	609e      	str	r6, [r3, #8]
   81206:	6819      	ldr	r1, [r3, #0]
   81208:	6059      	str	r1, [r3, #4]
 }
 xbuffsection1[0]=(int)invalue;
   8120a:	6018      	str	r0, [r3, #0]
 
 int j;
 for( j =0; j<=M;j++){
 sum1 += ((xbuffsection1[j]*bsection1[j]));
   8120c:	f44f 787a 	mov.w	r8, #1000	; 0x3e8
   81210:	4c44      	ldr	r4, [pc, #272]	; (81324 <movingFilterBandStop2+0x12c>)
   81212:	fb04 f101 	mul.w	r1, r4, r1
   81216:	fb08 1000 	mla	r0, r8, r0, r1
 }
 for(  j=1; j<=N;j++){
 sumy1 += ((ysection1[j]*asection1[j]));
   8121a:	4d43      	ldr	r5, [pc, #268]	; (81328 <movingFilterBandStop2+0x130>)
   8121c:	686a      	ldr	r2, [r5, #4]
   8121e:	f8d5 e008 	ldr.w	lr, [r5, #8]
 }
 
 for(i = N; i>1;i--){
 ysection1[i]=ysection1[i-1];
   81222:	f8c5 e00c 	str.w	lr, [r5, #12]
   81226:	60aa      	str	r2, [r5, #8]
 }

 totsumsection1= (((sum1/1000)+(sumy1/1000)));
 ysection1[1] = totsumsection1;
   81228:	fb08 0106 	mla	r1, r8, r6, r0
   8122c:	4f3f      	ldr	r7, [pc, #252]	; (8132c <movingFilterBandStop2+0x134>)
   8122e:	fb87 3001 	smull	r3, r0, r7, r1
   81232:	17c9      	asrs	r1, r1, #31
   81234:	ebc1 10a0 	rsb	r0, r1, r0, asr #6
   81238:	4b3d      	ldr	r3, [pc, #244]	; (81330 <movingFilterBandStop2+0x138>)
   8123a:	fb03 f30e 	mul.w	r3, r3, lr
   8123e:	f240 6167 	movw	r1, #1639	; 0x667
   81242:	fb01 3302 	mla	r3, r1, r2, r3
   81246:	fb87 1203 	smull	r1, r2, r7, r3
   8124a:	17db      	asrs	r3, r3, #31
   8124c:	ebc3 13a2 	rsb	r3, r3, r2, asr #6
   81250:	f8df 9108 	ldr.w	r9, [pc, #264]	; 8135c <movingFilterBandStop2+0x164>
   81254:	4418      	add	r0, r3
   81256:	47c8      	blx	r9
   81258:	4e36      	ldr	r6, [pc, #216]	; (81334 <movingFilterBandStop2+0x13c>)
   8125a:	47b0      	blx	r6
   8125c:	6068      	str	r0, [r5, #4]
 outvaluesection1 = totsumsection1;
 //SECTION 2
 int l;
 for(l =M; l>0; l--){
 xbuffsection2[l]=xbuffsection2[l-1];
   8125e:	4a36      	ldr	r2, [pc, #216]	; (81338 <movingFilterBandStop2+0x140>)
   81260:	6893      	ldr	r3, [r2, #8]
   81262:	60d3      	str	r3, [r2, #12]
   81264:	6853      	ldr	r3, [r2, #4]
   81266:	6093      	str	r3, [r2, #8]
   81268:	6811      	ldr	r1, [r2, #0]
   8126a:	6051      	str	r1, [r2, #4]
 }
 xbuffsection2[0]=(int)outvaluesection1;
   8126c:	6010      	str	r0, [r2, #0]
 int m;
 for( m =0; m<=M;m++){
 sum2 += ((xbuffsection2[m]*bsection2[m]));
   8126e:	fb04 f101 	mul.w	r1, r4, r1
   81272:	fb08 1000 	mla	r0, r8, r0, r1
 }
 for(  m=1; m<=N;m++){
 sumy2 += ((ysection2[m]*asection2[m]));
   81276:	4d31      	ldr	r5, [pc, #196]	; (8133c <movingFilterBandStop2+0x144>)
   81278:	686a      	ldr	r2, [r5, #4]
   8127a:	f8d5 e008 	ldr.w	lr, [r5, #8]
 }
 
 for(l = N; l>1;l--){
 ysection2[l]=ysection2[l-1];
   8127e:	f8c5 e00c 	str.w	lr, [r5, #12]
   81282:	60aa      	str	r2, [r5, #8]
 }
 totsumsection2= (((sum2/1000)+(sumy2/1000)));
 ysection2[1] = totsumsection2;
   81284:	fb08 0103 	mla	r1, r8, r3, r0
   81288:	fb87 3001 	smull	r3, r0, r7, r1
   8128c:	17c9      	asrs	r1, r1, #31
   8128e:	ebc1 10a0 	rsb	r0, r1, r0, asr #6
   81292:	4b2b      	ldr	r3, [pc, #172]	; (81340 <movingFilterBandStop2+0x148>)
   81294:	fb03 f30e 	mul.w	r3, r3, lr
   81298:	f240 7139 	movw	r1, #1849	; 0x739
   8129c:	fb01 3302 	mla	r3, r1, r2, r3
   812a0:	fb87 1203 	smull	r1, r2, r7, r3
   812a4:	17db      	asrs	r3, r3, #31
   812a6:	ebc3 13a2 	rsb	r3, r3, r2, asr #6
   812aa:	4418      	add	r0, r3
   812ac:	47c8      	blx	r9
   812ae:	47b0      	blx	r6
   812b0:	6068      	str	r0, [r5, #4]
 outvaluesection2 = totsumsection2;

 //SECTION 3
 int o;
 for(o =M; o>0; o--){
 xbuffsection3[o]=xbuffsection3[o-1];
   812b2:	4924      	ldr	r1, [pc, #144]	; (81344 <movingFilterBandStop2+0x14c>)
   812b4:	688b      	ldr	r3, [r1, #8]
   812b6:	60cb      	str	r3, [r1, #12]
   812b8:	684a      	ldr	r2, [r1, #4]
   812ba:	608a      	str	r2, [r1, #8]
   812bc:	680b      	ldr	r3, [r1, #0]
   812be:	604b      	str	r3, [r1, #4]
 }
 xbuffsection3[0]=(int)outvaluesection2;
   812c0:	6008      	str	r0, [r1, #0]
 int p;
 for( p =0; p<=M;p++){
 sum3 += ((xbuffsection3[p]*bsection3[p]));
   812c2:	fb04 f403 	mul.w	r4, r4, r3
   812c6:	fb08 4300 	mla	r3, r8, r0, r4
 }
 for(  p=1; p<=N;p++){
 sumy3 += ((ysection3[p]*asection3[p]));
   812ca:	4d1f      	ldr	r5, [pc, #124]	; (81348 <movingFilterBandStop2+0x150>)
   812cc:	686c      	ldr	r4, [r5, #4]
   812ce:	68a8      	ldr	r0, [r5, #8]
 }
 
 for(o = M; o>1;o--){
 ysection3[o]=ysection3[o-1];
   812d0:	60e8      	str	r0, [r5, #12]
   812d2:	60ac      	str	r4, [r5, #8]
 }
 totsumsection3= (((sum3/1000)+(sumy3/1000))*0.58);
 ysection3[1] = totsumsection3;
   812d4:	491d      	ldr	r1, [pc, #116]	; (8134c <movingFilterBandStop2+0x154>)
   812d6:	fb01 f100 	mul.w	r1, r1, r0
   812da:	f44f 60d0 	mov.w	r0, #1664	; 0x680
   812de:	fb00 1104 	mla	r1, r0, r4, r1
   812e2:	fb87 4001 	smull	r4, r0, r7, r1
   812e6:	17c9      	asrs	r1, r1, #31
   812e8:	ebc1 10a0 	rsb	r0, r1, r0, asr #6
   812ec:	fb08 3302 	mla	r3, r8, r2, r3
   812f0:	fb87 2703 	smull	r2, r7, r7, r3
   812f4:	17db      	asrs	r3, r3, #31
   812f6:	ebc3 13a7 	rsb	r3, r3, r7, asr #6
   812fa:	4418      	add	r0, r3
   812fc:	4b14      	ldr	r3, [pc, #80]	; (81350 <movingFilterBandStop2+0x158>)
   812fe:	4798      	blx	r3
   81300:	a305      	add	r3, pc, #20	; (adr r3, 81318 <movingFilterBandStop2+0x120>)
   81302:	e9d3 2300 	ldrd	r2, r3, [r3]
   81306:	4c13      	ldr	r4, [pc, #76]	; (81354 <movingFilterBandStop2+0x15c>)
   81308:	47a0      	blx	r4
   8130a:	4b13      	ldr	r3, [pc, #76]	; (81358 <movingFilterBandStop2+0x160>)
   8130c:	4798      	blx	r3
   8130e:	47b0      	blx	r6
   81310:	6068      	str	r0, [r5, #4]
 outvaluesection3 = totsumsection3;
 return outvaluesection3;

   81312:	e8bd 83f8 	ldmia.w	sp!, {r3, r4, r5, r6, r7, r8, r9, pc}
   81316:	bf00      	nop
   81318:	28f5c28f 	.word	0x28f5c28f
   8131c:	3fe28f5c 	.word	0x3fe28f5c
   81320:	20070b60 	.word	0x20070b60
   81324:	fffff8ae 	.word	0xfffff8ae
   81328:	20070b90 	.word	0x20070b90
   8132c:	10624dd3 	.word	0x10624dd3
   81330:	fffffcad 	.word	0xfffffcad
   81334:	00082df1 	.word	0x00082df1
   81338:	20070b70 	.word	0x20070b70
   8133c:	20070ba0 	.word	0x20070ba0
   81340:	fffffc6e 	.word	0xfffffc6e
   81344:	20070b80 	.word	0x20070b80
   81348:	20070bb0 	.word	0x20070bb0
   8134c:	fffffcf9 	.word	0xfffffcf9
   81350:	00082645 	.word	0x00082645
   81354:	00082711 	.word	0x00082711
   81358:	00082b35 	.word	0x00082b35
   8135c:	00082d49 	.word	0x00082d49

00081360 <movingFilterBandStop3>:

 }; //koefficienterna * 1000

 /*-------------------------------------------------*/

 uint32_t movingFilterBandStop3(uint32_t invalue){
   81360:	e92d 43f8 	stmdb	sp!, {r3, r4, r5, r6, r7, r8, r9, lr}
 int32_t outvaluesection1, outvaluesection2,outvaluesection3;
 
 //SECTION 1
 int i;
 for(i =M; i>0; i--){
 xbuffsection1[i]=xbuffsection1[i-1];
   81364:	4b48      	ldr	r3, [pc, #288]	; (81488 <movingFilterBandStop3+0x128>)
   81366:	689a      	ldr	r2, [r3, #8]
   81368:	60da      	str	r2, [r3, #12]
   8136a:	685e      	ldr	r6, [r3, #4]
   8136c:	609e      	str	r6, [r3, #8]
   8136e:	6819      	ldr	r1, [r3, #0]
   81370:	6059      	str	r1, [r3, #4]
 }
 xbuffsection1[0]=(int)invalue;
   81372:	6018      	str	r0, [r3, #0]
 
 int j;
 for( j =0; j<=M;j++){
 sum1 += ((xbuffsection1[j]*bsection1[j]));
   81374:	f44f 787a 	mov.w	r8, #1000	; 0x3e8
   81378:	f06f 048e 	mvn.w	r4, #142	; 0x8e
   8137c:	fb04 f101 	mul.w	r1, r4, r1
   81380:	fb08 1000 	mla	r0, r8, r0, r1
 }
 for(  j=1; j<=N;j++){
 sumy1 += ((ysection1[j]*asection1[j]));
   81384:	4d41      	ldr	r5, [pc, #260]	; (8148c <movingFilterBandStop3+0x12c>)
   81386:	686a      	ldr	r2, [r5, #4]
   81388:	f8d5 e008 	ldr.w	lr, [r5, #8]
 }
 
 for(i = N; i>1;i--){
 ysection1[i]=ysection1[i-1];
   8138c:	f8c5 e00c 	str.w	lr, [r5, #12]
   81390:	60aa      	str	r2, [r5, #8]
 }

 totsumsection1= (((sum1/1000)+(sumy1/1000)));
 ysection1[1] = totsumsection1;
   81392:	fb08 0106 	mla	r1, r8, r6, r0
   81396:	4f3e      	ldr	r7, [pc, #248]	; (81490 <movingFilterBandStop3+0x130>)
   81398:	fb87 3001 	smull	r3, r0, r7, r1
   8139c:	17c9      	asrs	r1, r1, #31
   8139e:	ebc1 10a0 	rsb	r0, r1, r0, asr #6
   813a2:	4b3c      	ldr	r3, [pc, #240]	; (81494 <movingFilterBandStop3+0x134>)
   813a4:	fb03 f30e 	mul.w	r3, r3, lr
   813a8:	493b      	ldr	r1, [pc, #236]	; (81498 <movingFilterBandStop3+0x138>)
   813aa:	fb01 3302 	mla	r3, r1, r2, r3
   813ae:	fb87 1203 	smull	r1, r2, r7, r3
   813b2:	17db      	asrs	r3, r3, #31
   813b4:	ebc3 13a2 	rsb	r3, r3, r2, asr #6
   813b8:	f8df 9108 	ldr.w	r9, [pc, #264]	; 814c4 <movingFilterBandStop3+0x164>
   813bc:	4418      	add	r0, r3
   813be:	47c8      	blx	r9
   813c0:	4e36      	ldr	r6, [pc, #216]	; (8149c <movingFilterBandStop3+0x13c>)
   813c2:	47b0      	blx	r6
   813c4:	6068      	str	r0, [r5, #4]
 outvaluesection1 = totsumsection1;
 //SECTION 2
 int l;
 for(l =M; l>0; l--){
 xbuffsection2[l]=xbuffsection2[l-1];
   813c6:	4a36      	ldr	r2, [pc, #216]	; (814a0 <movingFilterBandStop3+0x140>)
   813c8:	6893      	ldr	r3, [r2, #8]
   813ca:	60d3      	str	r3, [r2, #12]
   813cc:	6853      	ldr	r3, [r2, #4]
   813ce:	6093      	str	r3, [r2, #8]
   813d0:	6811      	ldr	r1, [r2, #0]
   813d2:	6051      	str	r1, [r2, #4]
 }
 xbuffsection2[0]=(int)outvaluesection1;
   813d4:	6010      	str	r0, [r2, #0]
 int m;
 for( m =0; m<=M;m++){
 sum2 += ((xbuffsection2[m]*bsection2[m]));
   813d6:	fb04 f101 	mul.w	r1, r4, r1
   813da:	fb08 1000 	mla	r0, r8, r0, r1
 }
 for(  m=1; m<=N;m++){
 sumy2 += ((ysection2[m]*asection2[m]));
   813de:	4d31      	ldr	r5, [pc, #196]	; (814a4 <movingFilterBandStop3+0x144>)
   813e0:	686a      	ldr	r2, [r5, #4]
   813e2:	f8d5 e008 	ldr.w	lr, [r5, #8]
 }
 
 for(l = N; l>1;l--){
 ysection2[l]=ysection2[l-1];
   813e6:	f8c5 e00c 	str.w	lr, [r5, #12]
   813ea:	60aa      	str	r2, [r5, #8]
 }
 totsumsection2= (((sum2/1000)+(sumy2/1000)));
 ysection2[1] = totsumsection2;
   813ec:	fb08 0103 	mla	r1, r8, r3, r0
   813f0:	fb87 3001 	smull	r3, r0, r7, r1
   813f4:	17c9      	asrs	r1, r1, #31
   813f6:	ebc1 10a0 	rsb	r0, r1, r0, asr #6
   813fa:	4b2b      	ldr	r3, [pc, #172]	; (814a8 <movingFilterBandStop3+0x148>)
   813fc:	fb03 f30e 	mul.w	r3, r3, lr
   81400:	f240 3133 	movw	r1, #819	; 0x333
   81404:	fb01 3302 	mla	r3, r1, r2, r3
   81408:	fb87 1203 	smull	r1, r2, r7, r3
   8140c:	17db      	asrs	r3, r3, #31
   8140e:	ebc3 13a2 	rsb	r3, r3, r2, asr #6
   81412:	4418      	add	r0, r3
   81414:	47c8      	blx	r9
   81416:	47b0      	blx	r6
   81418:	6068      	str	r0, [r5, #4]
 outvaluesection2 = totsumsection2;

 //SECTION 3
 int o;
 for(o =M; o>0; o--){
 xbuffsection3[o]=xbuffsection3[o-1];
   8141a:	4924      	ldr	r1, [pc, #144]	; (814ac <movingFilterBandStop3+0x14c>)
   8141c:	688b      	ldr	r3, [r1, #8]
   8141e:	60cb      	str	r3, [r1, #12]
   81420:	684a      	ldr	r2, [r1, #4]
   81422:	608a      	str	r2, [r1, #8]
   81424:	680b      	ldr	r3, [r1, #0]
   81426:	604b      	str	r3, [r1, #4]
 }
 xbuffsection3[0]=(int)outvaluesection2;
   81428:	6008      	str	r0, [r1, #0]
 int p;
 for( p =0; p<=M;p++){
 sum3 += ((xbuffsection3[p]*bsection3[p]));
   8142a:	fb04 f403 	mul.w	r4, r4, r3
   8142e:	fb08 4300 	mla	r3, r8, r0, r4
 }
 for(  p=1; p<=N;p++){
 sumy3 += ((ysection3[p]*asection3[p]));
   81432:	4d1f      	ldr	r5, [pc, #124]	; (814b0 <movingFilterBandStop3+0x150>)
   81434:	686c      	ldr	r4, [r5, #4]
   81436:	68a8      	ldr	r0, [r5, #8]
 }
 
 for(o = M; o>1;o--){
 ysection3[o]=ysection3[o-1];
   81438:	60e8      	str	r0, [r5, #12]
   8143a:	60ac      	str	r4, [r5, #8]
 }
 totsumsection3= (((sum3/1000)+(sumy3/1000))*0.17);
 ysection3[1] = totsumsection3;
   8143c:	491d      	ldr	r1, [pc, #116]	; (814b4 <movingFilterBandStop3+0x154>)
   8143e:	fb01 f100 	mul.w	r1, r1, r0
   81442:	205c      	movs	r0, #92	; 0x5c
   81444:	fb00 1104 	mla	r1, r0, r4, r1
   81448:	fb87 4001 	smull	r4, r0, r7, r1
   8144c:	17c9      	asrs	r1, r1, #31
   8144e:	ebc1 10a0 	rsb	r0, r1, r0, asr #6
   81452:	fb08 3302 	mla	r3, r8, r2, r3
   81456:	fb87 2703 	smull	r2, r7, r7, r3
   8145a:	17db      	asrs	r3, r3, #31
   8145c:	ebc3 13a7 	rsb	r3, r3, r7, asr #6
   81460:	4418      	add	r0, r3
   81462:	4b15      	ldr	r3, [pc, #84]	; (814b8 <movingFilterBandStop3+0x158>)
   81464:	4798      	blx	r3
   81466:	a306      	add	r3, pc, #24	; (adr r3, 81480 <movingFilterBandStop3+0x120>)
   81468:	e9d3 2300 	ldrd	r2, r3, [r3]
   8146c:	4c13      	ldr	r4, [pc, #76]	; (814bc <movingFilterBandStop3+0x15c>)
   8146e:	47a0      	blx	r4
   81470:	4b13      	ldr	r3, [pc, #76]	; (814c0 <movingFilterBandStop3+0x160>)
   81472:	4798      	blx	r3
   81474:	47b0      	blx	r6
   81476:	6068      	str	r0, [r5, #4]
 outvaluesection3 = totsumsection3;
 return outvaluesection3;

   81478:	e8bd 83f8 	ldmia.w	sp!, {r3, r4, r5, r6, r7, r8, r9, pc}
   8147c:	f3af 8000 	nop.w
   81480:	5c28f5c3 	.word	0x5c28f5c3
   81484:	3fc5c28f 	.word	0x3fc5c28f
   81488:	20070bc0 	.word	0x20070bc0
   8148c:	20070bf0 	.word	0x20070bf0
   81490:	10624dd3 	.word	0x10624dd3
   81494:	fffffd8c 	.word	0xfffffd8c
   81498:	fffffd92 	.word	0xfffffd92
   8149c:	00082df1 	.word	0x00082df1
   814a0:	20070bd0 	.word	0x20070bd0
   814a4:	20070c00 	.word	0x20070c00
   814a8:	fffffd7a 	.word	0xfffffd7a
   814ac:	20070be0 	.word	0x20070be0
   814b0:	20070c10 	.word	0x20070c10
   814b4:	fffffede 	.word	0xfffffede
   814b8:	00082645 	.word	0x00082645
   814bc:	00082711 	.word	0x00082711
   814c0:	00082b35 	.word	0x00082b35
   814c4:	00082d49 	.word	0x00082d49

000814c8 <adc_setup>:

/************************************************************************/
/* Initierar ADC för pinne  A0-A2 och A8                                */
/************************************************************************/
void adc_setup()
{
   814c8:	b538      	push	{r3, r4, r5, lr}
	pmc_enable_periph_clk(ID_ADC);
   814ca:	2025      	movs	r0, #37	; 0x25
   814cc:	4b14      	ldr	r3, [pc, #80]	; (81520 <adc_setup+0x58>)
   814ce:	4798      	blx	r3
	adc_init(ADC, sysclk_get_main_hz(), 20000000, 0);		// Konfiguerar för maximal frekvens på 84 MHz
   814d0:	4c14      	ldr	r4, [pc, #80]	; (81524 <adc_setup+0x5c>)
   814d2:	2300      	movs	r3, #0
   814d4:	4a14      	ldr	r2, [pc, #80]	; (81528 <adc_setup+0x60>)
   814d6:	4915      	ldr	r1, [pc, #84]	; (8152c <adc_setup+0x64>)
   814d8:	4620      	mov	r0, r4
   814da:	4d15      	ldr	r5, [pc, #84]	; (81530 <adc_setup+0x68>)
   814dc:	47a8      	blx	r5
	adc_configure_timing(ADC, 0, 0, 0);
   814de:	2300      	movs	r3, #0
   814e0:	461a      	mov	r2, r3
   814e2:	4619      	mov	r1, r3
   814e4:	4620      	mov	r0, r4
   814e6:	4d13      	ldr	r5, [pc, #76]	; (81534 <adc_setup+0x6c>)
   814e8:	47a8      	blx	r5
	adc_set_resolution(ADC, ADC_MR_LOWRES_BITS_12);			// Sätter upplösningen på 12 bitar
   814ea:	2100      	movs	r1, #0
   814ec:	4620      	mov	r0, r4
   814ee:	4b12      	ldr	r3, [pc, #72]	; (81538 <adc_setup+0x70>)
   814f0:	4798      	blx	r3
	adc_enable_channel(ADC, ADC_CHANNEL_10);				// Analog pin 8			
   814f2:	210a      	movs	r1, #10
   814f4:	4620      	mov	r0, r4
   814f6:	4d11      	ldr	r5, [pc, #68]	; (8153c <adc_setup+0x74>)
   814f8:	47a8      	blx	r5
	adc_enable_channel(ADC, ADC_CHANNEL_6);					// Analog pin 1
   814fa:	2106      	movs	r1, #6
   814fc:	4620      	mov	r0, r4
   814fe:	47a8      	blx	r5
	adc_enable_channel(ADC, ADC_CHANNEL_5);					// Analog pin 2
   81500:	2105      	movs	r1, #5
   81502:	4620      	mov	r0, r4
   81504:	47a8      	blx	r5
	adc_enable_channel(ADC, ADC_CHANNEL_4);					// Analog pin 3
   81506:	2104      	movs	r1, #4
   81508:	4620      	mov	r0, r4
   8150a:	47a8      	blx	r5
	adc_enable_channel(ADC, ADC_CHANNEL_3);					// Analog pin 2
   8150c:	2103      	movs	r1, #3
   8150e:	4620      	mov	r0, r4
   81510:	47a8      	blx	r5
	adc_configure_trigger(ADC, ADC_TRIG_SW, 0);				
   81512:	2200      	movs	r2, #0
   81514:	4611      	mov	r1, r2
   81516:	4620      	mov	r0, r4
   81518:	4b09      	ldr	r3, [pc, #36]	; (81540 <adc_setup+0x78>)
   8151a:	4798      	blx	r3
   8151c:	bd38      	pop	{r3, r4, r5, pc}
   8151e:	bf00      	nop
   81520:	000820c1 	.word	0x000820c1
   81524:	400c0000 	.word	0x400c0000
   81528:	01312d00 	.word	0x01312d00
   8152c:	0a037a00 	.word	0x0a037a00
   81530:	000801dd 	.word	0x000801dd
   81534:	00080231 	.word	0x00080231
   81538:	00080211 	.word	0x00080211
   8153c:	00080255 	.word	0x00080255
   81540:	00080221 	.word	0x00080221

00081544 <dac_setup>:


/************************************************************************/
/* Initierar DAC för pin DAC1                                           */
/************************************************************************/
void dac_setup() {
   81544:	b538      	push	{r3, r4, r5, lr}
	pmc_enable_periph_clk(ID_DACC);
   81546:	2026      	movs	r0, #38	; 0x26
   81548:	4b0c      	ldr	r3, [pc, #48]	; (8157c <dac_setup+0x38>)
   8154a:	4798      	blx	r3
	dacc_reset(DACC);
   8154c:	4c0c      	ldr	r4, [pc, #48]	; (81580 <dac_setup+0x3c>)
   8154e:	4620      	mov	r0, r4
   81550:	4b0c      	ldr	r3, [pc, #48]	; (81584 <dac_setup+0x40>)
   81552:	4798      	blx	r3
	dacc_set_transfer_mode(DACC, 0);
   81554:	2100      	movs	r1, #0
   81556:	4620      	mov	r0, r4
   81558:	4b0b      	ldr	r3, [pc, #44]	; (81588 <dac_setup+0x44>)
   8155a:	4798      	blx	r3
	dacc_set_timing(DACC,1,1,0);			// 1 är den kortade uppdateringsperiod, 1 max speed, 0 start upp tid
   8155c:	2300      	movs	r3, #0
   8155e:	2201      	movs	r2, #1
   81560:	4611      	mov	r1, r2
   81562:	4620      	mov	r0, r4
   81564:	4d09      	ldr	r5, [pc, #36]	; (8158c <dac_setup+0x48>)
   81566:	47a8      	blx	r5
	
	dacc_set_channel_selection(DACC,1);		// Channel DAC1
   81568:	2101      	movs	r1, #1
   8156a:	4620      	mov	r0, r4
   8156c:	4b08      	ldr	r3, [pc, #32]	; (81590 <dac_setup+0x4c>)
   8156e:	4798      	blx	r3
	dacc_enable_channel(DACC, 1);			// Startar DAC1
   81570:	2101      	movs	r1, #1
   81572:	4620      	mov	r0, r4
   81574:	4b07      	ldr	r3, [pc, #28]	; (81594 <dac_setup+0x50>)
   81576:	4798      	blx	r3
   81578:	bd38      	pop	{r3, r4, r5, pc}
   8157a:	bf00      	nop
   8157c:	000820c1 	.word	0x000820c1
   81580:	400c8000 	.word	0x400c8000
   81584:	000815f5 	.word	0x000815f5
   81588:	000815fd 	.word	0x000815fd
   8158c:	00081631 	.word	0x00081631
   81590:	00081619 	.word	0x00081619
   81594:	00081661 	.word	0x00081661

00081598 <configure_tc>:
/************************************************************************/
/* Denna metod initierar interruptet                                    */
/* 42000000 -> 2100 - 20000												*/
/************************************************************************/
void configure_tc(void)
{
   81598:	b510      	push	{r4, lr}
	/* Konfiguerar PMC */
	pmc_enable_periph_clk(ID_TC0);
   8159a:	201b      	movs	r0, #27
   8159c:	4b0e      	ldr	r3, [pc, #56]	; (815d8 <configure_tc+0x40>)
   8159e:	4798      	blx	r3

	/** Konfiguerar TC för 20 khz frevkens och triggar på RC jämförelse. */
	tc_init(TC0, 0, 0 | TC_CMR_CPCTRG);			//Timer_clock_1 - MCK/2 - 42 MHz
   815a0:	4c0e      	ldr	r4, [pc, #56]	; (815dc <configure_tc+0x44>)
   815a2:	f44f 4280 	mov.w	r2, #16384	; 0x4000
   815a6:	2100      	movs	r1, #0
   815a8:	4620      	mov	r0, r4
   815aa:	4b0d      	ldr	r3, [pc, #52]	; (815e0 <configure_tc+0x48>)
   815ac:	4798      	blx	r3
	tc_write_rc(TC0, 0, 2100);					//2100 -> fs = 20 kHz -> 20 kHz valdes för att man vill ha in 4 st filter. Ett filter tar ca 11-12 ms
   815ae:	f640 0234 	movw	r2, #2100	; 0x834
   815b2:	2100      	movs	r1, #0
   815b4:	4620      	mov	r0, r4
   815b6:	4b0b      	ldr	r3, [pc, #44]	; (815e4 <configure_tc+0x4c>)
   815b8:	4798      	blx	r3

    \param [in]      IRQn  External interrupt number. Value cannot be negative.
 */
__STATIC_INLINE void NVIC_EnableIRQ(IRQn_Type IRQn)
{
  NVIC->ISER[((uint32_t)(IRQn) >> 5)] = (1 << ((uint32_t)(IRQn) & 0x1F)); /* enable interrupt */
   815ba:	f04f 6200 	mov.w	r2, #134217728	; 0x8000000
   815be:	4b0a      	ldr	r3, [pc, #40]	; (815e8 <configure_tc+0x50>)
   815c0:	601a      	str	r2, [r3, #0]

	/* Konfiguerar och sätter på interruptet på RC-jämförelsen*/
	NVIC_EnableIRQ((IRQn_Type) ID_TC0);
	tc_enable_interrupt(TC0, 0, TC_IER_CPCS);
   815c2:	2210      	movs	r2, #16
   815c4:	2100      	movs	r1, #0
   815c6:	4620      	mov	r0, r4
   815c8:	4b08      	ldr	r3, [pc, #32]	; (815ec <configure_tc+0x54>)
   815ca:	4798      	blx	r3

	tc_start(TC0, 0);
   815cc:	2100      	movs	r1, #0
   815ce:	4620      	mov	r0, r4
   815d0:	4b07      	ldr	r3, [pc, #28]	; (815f0 <configure_tc+0x58>)
   815d2:	4798      	blx	r3
   815d4:	bd10      	pop	{r4, pc}
   815d6:	bf00      	nop
   815d8:	000820c1 	.word	0x000820c1
   815dc:	40080000 	.word	0x40080000
   815e0:	00081675 	.word	0x00081675
   815e4:	000816ad 	.word	0x000816ad
   815e8:	e000e100 	.word	0xe000e100
   815ec:	000816b5 	.word	0x000816b5
   815f0:	00081695 	.word	0x00081695

000815f4 <dacc_reset>:
 *
 * \param p_dacc Pointer to a DACC instance. 
 */
void dacc_reset(Dacc *p_dacc)
{
	p_dacc->DACC_CR = DACC_CR_SWRST;
   815f4:	2301      	movs	r3, #1
   815f6:	6003      	str	r3, [r0, #0]
   815f8:	4770      	bx	lr
   815fa:	bf00      	nop

000815fc <dacc_set_transfer_mode>:
 *
 * \return \ref DACC_RC_OK for OK.
 */
uint32_t dacc_set_transfer_mode(Dacc *p_dacc, uint32_t ul_mode)
{
	if (ul_mode) {
   815fc:	b121      	cbz	r1, 81608 <dacc_set_transfer_mode+0xc>
#if (SAM3N) || (SAM4L) || (SAM4N)
		p_dacc->DACC_MR |= DACC_MR_WORD;
#else
		p_dacc->DACC_MR |= DACC_MR_WORD_WORD;
   815fe:	6843      	ldr	r3, [r0, #4]
   81600:	f043 0310 	orr.w	r3, r3, #16
   81604:	6043      	str	r3, [r0, #4]
   81606:	e003      	b.n	81610 <dacc_set_transfer_mode+0x14>
#endif
	} else {
#if (SAM3N) || (SAM4L) || (SAM4N)
		p_dacc->DACC_MR &= (~DACC_MR_WORD);
#else
		p_dacc->DACC_MR &= (~DACC_MR_WORD_WORD);
   81608:	6843      	ldr	r3, [r0, #4]
   8160a:	f023 0310 	bic.w	r3, r3, #16
   8160e:	6043      	str	r3, [r0, #4]
#endif
	}
	return DACC_RC_OK;
}
   81610:	2000      	movs	r0, #0
   81612:	4770      	bx	lr

00081614 <dacc_write_conversion_data>:
 * \param p_dacc Pointer to a DACC instance. 
 * \param ul_data The data to be transferred to analog value. 
 */
void dacc_write_conversion_data(Dacc *p_dacc, uint32_t ul_data)
{
	p_dacc->DACC_CDR = ul_data;
   81614:	6201      	str	r1, [r0, #32]
   81616:	4770      	bx	lr

00081618 <dacc_set_channel_selection>:
 *
 * \return \ref DACC_RC_OK if successful.
 */
uint32_t dacc_set_channel_selection(Dacc *p_dacc, uint32_t ul_channel)
{
	uint32_t mr = p_dacc->DACC_MR & (~DACC_MR_USER_SEL_Msk);
   81618:	6843      	ldr	r3, [r0, #4]
	if (ul_channel > MAX_CH_NB) {
   8161a:	2901      	cmp	r1, #1
   8161c:	d806      	bhi.n	8162c <dacc_set_channel_selection+0x14>
		return DACC_RC_INVALID_PARAM;
	}
	mr &= ~(DACC_MR_TAG);
   8161e:	f423 1398 	bic.w	r3, r3, #1245184	; 0x130000
	mr |= ul_channel << DACC_MR_USER_SEL_Pos;
   81622:	ea43 4101 	orr.w	r1, r3, r1, lsl #16
	p_dacc->DACC_MR = mr;
   81626:	6041      	str	r1, [r0, #4]
	return DACC_RC_OK;
   81628:	2000      	movs	r0, #0
   8162a:	4770      	bx	lr
 */
uint32_t dacc_set_channel_selection(Dacc *p_dacc, uint32_t ul_channel)
{
	uint32_t mr = p_dacc->DACC_MR & (~DACC_MR_USER_SEL_Msk);
	if (ul_channel > MAX_CH_NB) {
		return DACC_RC_INVALID_PARAM;
   8162c:	2001      	movs	r0, #1
	}
	mr &= ~(DACC_MR_TAG);
	mr |= ul_channel << DACC_MR_USER_SEL_Pos;
	p_dacc->DACC_MR = mr;
	return DACC_RC_OK;
}
   8162e:	4770      	bx	lr

00081630 <dacc_set_timing>:
 *
 * \return \ref DACC_RC_OK for OK.
 */
uint32_t dacc_set_timing(Dacc *p_dacc,
		uint32_t ul_refresh, uint32_t ul_maxs, uint32_t ul_startup)
{
   81630:	b410      	push	{r4}
	uint32_t mr = p_dacc->DACC_MR
   81632:	6844      	ldr	r4, [r0, #4]
   81634:	f024 547c 	bic.w	r4, r4, #1056964608	; 0x3f000000
   81638:	f424 447f 	bic.w	r4, r4, #65280	; 0xff00
		& (~(DACC_MR_REFRESH_Msk | DACC_MR_STARTUP_Msk));
	mr |= DACC_MR_REFRESH(ul_refresh);
   8163c:	0209      	lsls	r1, r1, #8
   8163e:	b289      	uxth	r1, r1
   81640:	430c      	orrs	r4, r1
	if (ul_maxs) {
   81642:	b112      	cbz	r2, 8164a <dacc_set_timing+0x1a>
		mr |= DACC_MR_MAXS;
   81644:	f444 1400 	orr.w	r4, r4, #2097152	; 0x200000
   81648:	e001      	b.n	8164e <dacc_set_timing+0x1e>
	} else {
		mr &= ~DACC_MR_MAXS;
   8164a:	f424 1400 	bic.w	r4, r4, #2097152	; 0x200000
	}
	mr |= (DACC_MR_STARTUP_Msk & ((ul_startup) << DACC_MR_STARTUP_Pos));
   8164e:	061b      	lsls	r3, r3, #24
   81650:	f003 537c 	and.w	r3, r3, #1056964608	; 0x3f000000
   81654:	431c      	orrs	r4, r3
	p_dacc->DACC_MR = mr;
   81656:	6044      	str	r4, [r0, #4]
	return DACC_RC_OK;
}
   81658:	2000      	movs	r0, #0
   8165a:	bc10      	pop	{r4}
   8165c:	4770      	bx	lr
   8165e:	bf00      	nop

00081660 <dacc_enable_channel>:
 *
 * \return \ref DACC_RC_OK for OK.
 */
uint32_t dacc_enable_channel(Dacc *p_dacc, uint32_t ul_channel)
{
	if (ul_channel > MAX_CH_NB)
   81660:	2901      	cmp	r1, #1
   81662:	d805      	bhi.n	81670 <dacc_enable_channel+0x10>
		return DACC_RC_INVALID_PARAM;

	p_dacc->DACC_CHER = DACC_CHER_CH0 << ul_channel;
   81664:	2301      	movs	r3, #1
   81666:	fa03 f101 	lsl.w	r1, r3, r1
   8166a:	6101      	str	r1, [r0, #16]
	return DACC_RC_OK;
   8166c:	2000      	movs	r0, #0
   8166e:	4770      	bx	lr
 * \return \ref DACC_RC_OK for OK.
 */
uint32_t dacc_enable_channel(Dacc *p_dacc, uint32_t ul_channel)
{
	if (ul_channel > MAX_CH_NB)
		return DACC_RC_INVALID_PARAM;
   81670:	2001      	movs	r0, #1

	p_dacc->DACC_CHER = DACC_CHER_CH0 << ul_channel;
	return DACC_RC_OK;
}
   81672:	4770      	bx	lr

00081674 <tc_init>:
 * This is because the setting forces TIOB to be an input even if the
 * external event trigger has not been enabled with \c TC_CMR_ENETRG, and
 * thus prevents normal operation of TIOB.
 */
void tc_init(Tc *p_tc, uint32_t ul_channel, uint32_t ul_mode)
{
   81674:	b410      	push	{r4}
	TcChannel *tc_channel;

	Assert(ul_channel <
			(sizeof(p_tc->TC_CHANNEL) / sizeof(p_tc->TC_CHANNEL[0])));
	tc_channel = p_tc->TC_CHANNEL + ul_channel;
   81676:	0189      	lsls	r1, r1, #6
   81678:	1843      	adds	r3, r0, r1

	/*  Disable TC clock. */
	tc_channel->TC_CCR = TC_CCR_CLKDIS;
   8167a:	2402      	movs	r4, #2
   8167c:	5044      	str	r4, [r0, r1]

	/*  Disable interrupts. */
	tc_channel->TC_IDR = 0xFFFFFFFF;
   8167e:	f04f 31ff 	mov.w	r1, #4294967295
   81682:	6299      	str	r1, [r3, #40]	; 0x28

	/*  Clear status register. */
	tc_channel->TC_SR;
   81684:	6a19      	ldr	r1, [r3, #32]

	/*  Set mode. */
	tc_channel->TC_CMR = ul_mode;
   81686:	605a      	str	r2, [r3, #4]
}
   81688:	bc10      	pop	{r4}
   8168a:	4770      	bx	lr

0008168c <tc_set_block_mode>:
 * \param ul_blockmode Block mode register value to set.
 *
 */
void tc_set_block_mode(Tc *p_tc, uint32_t ul_blockmode)
{
	p_tc->TC_BMR = ul_blockmode;
   8168c:	f8c0 10c4 	str.w	r1, [r0, #196]	; 0xc4
   81690:	4770      	bx	lr
   81692:	bf00      	nop

00081694 <tc_start>:
void tc_start(Tc *p_tc, uint32_t ul_channel)
{
	Assert(ul_channel <
			(sizeof(p_tc->TC_CHANNEL) / sizeof(p_tc->TC_CHANNEL[0])));

	p_tc->TC_CHANNEL[ul_channel].TC_CCR = TC_CCR_CLKEN | TC_CCR_SWTRG;
   81694:	0189      	lsls	r1, r1, #6
   81696:	2305      	movs	r3, #5
   81698:	5043      	str	r3, [r0, r1]
   8169a:	4770      	bx	lr

0008169c <tc_stop>:
void tc_stop(Tc *p_tc, uint32_t ul_channel)
{
	Assert(ul_channel <
			(sizeof(p_tc->TC_CHANNEL) / sizeof(p_tc->TC_CHANNEL[0])));

	p_tc->TC_CHANNEL[ul_channel].TC_CCR = TC_CCR_CLKDIS;
   8169c:	0189      	lsls	r1, r1, #6
   8169e:	2302      	movs	r3, #2
   816a0:	5043      	str	r3, [r0, r1]
   816a2:	4770      	bx	lr

000816a4 <tc_read_cv>:
uint32_t tc_read_cv(Tc *p_tc, uint32_t ul_channel)
{
	Assert(ul_channel <
			(sizeof(p_tc->TC_CHANNEL) / sizeof(p_tc->TC_CHANNEL[0])));

	return p_tc->TC_CHANNEL[ul_channel].TC_CV;
   816a4:	eb00 1181 	add.w	r1, r0, r1, lsl #6
   816a8:	6908      	ldr	r0, [r1, #16]
}
   816aa:	4770      	bx	lr

000816ac <tc_write_rc>:
		uint32_t ul_value)
{
	Assert(ul_channel <
			(sizeof(p_tc->TC_CHANNEL) / sizeof(p_tc->TC_CHANNEL[0])));

	p_tc->TC_CHANNEL[ul_channel].TC_RC = ul_value;
   816ac:	eb00 1181 	add.w	r1, r0, r1, lsl #6
   816b0:	61ca      	str	r2, [r1, #28]
   816b2:	4770      	bx	lr

000816b4 <tc_enable_interrupt>:
{
	TcChannel *tc_channel;

	Assert(ul_channel <
			(sizeof(p_tc->TC_CHANNEL) / sizeof(p_tc->TC_CHANNEL[0])));
	tc_channel = p_tc->TC_CHANNEL + ul_channel;
   816b4:	eb00 1181 	add.w	r1, r0, r1, lsl #6
	tc_channel->TC_IER = ul_sources;
   816b8:	624a      	str	r2, [r1, #36]	; 0x24
   816ba:	4770      	bx	lr

000816bc <tc_get_status>:
{
	TcChannel *tc_channel;

	Assert(ul_channel <
			(sizeof(p_tc->TC_CHANNEL) / sizeof(p_tc->TC_CHANNEL[0])));
	tc_channel = p_tc->TC_CHANNEL + ul_channel;
   816bc:	eb00 1181 	add.w	r1, r0, r1, lsl #6
	return tc_channel->TC_SR;
   816c0:	6a08      	ldr	r0, [r1, #32]
}
   816c2:	4770      	bx	lr

000816c4 <lcdWrite4DigitNumber>:
int lcdWrite4DigitNumber(int number)
/*  
 * To write on the display we need to send numbers between 0-9.
 * Then we add 48 to get the right ASCII-value.
 */
{
   816c4:	e92d 4ff8 	stmdb	sp!, {r3, r4, r5, r6, r7, r8, r9, sl, fp, lr}
	int zero,first,second,third,fourth, temp_1, temp_2,temp_3;

	temp_3 =number % 10000;
   816c8:	4a2f      	ldr	r2, [pc, #188]	; (81788 <lcdWrite4DigitNumber+0xc4>)
   816ca:	fb82 3900 	smull	r3, r9, r2, r0
   816ce:	17c3      	asrs	r3, r0, #31
   816d0:	ebc3 3929 	rsb	r9, r3, r9, asr #12
   816d4:	f242 7110 	movw	r1, #10000	; 0x2710
   816d8:	fb01 0919 	mls	r9, r1, r9, r0
	zero = ((number - temp_3) / 10000) + 48;/* To get the 10000th number*/

	temp_1 = number % 1000;						
   816dc:	f8df b0b4 	ldr.w	fp, [pc, #180]	; 81794 <lcdWrite4DigitNumber+0xd0>
   816e0:	fb8b 1400 	smull	r1, r4, fp, r0
   816e4:	ebc3 14a4 	rsb	r4, r3, r4, asr #6
   816e8:	f44f 737a 	mov.w	r3, #1000	; 0x3e8
   816ec:	fb03 0414 	mls	r4, r3, r4, r0
	first = ((temp_3 - temp_1) / 1000) + 48;	/* To get the 1000th number*/
		
	temp_2 = temp_1 % 100;
   816f0:	f8df a0a4 	ldr.w	sl, [pc, #164]	; 81798 <lcdWrite4DigitNumber+0xd4>
   816f4:	fb8a 3804 	smull	r3, r8, sl, r4
   816f8:	17e3      	asrs	r3, r4, #31
   816fa:	ebc3 1868 	rsb	r8, r3, r8, asr #5
   816fe:	2364      	movs	r3, #100	; 0x64
   81700:	fb03 4818 	mls	r8, r3, r8, r4
	second = ((temp_1 - temp_2) / 100) + 48;	/* To get the 100th number*/
	
	temp_1 = temp_2 % 10;
   81704:	4f21      	ldr	r7, [pc, #132]	; (8178c <lcdWrite4DigitNumber+0xc8>)
   81706:	fb87 3508 	smull	r3, r5, r7, r8
   8170a:	ea4f 73e8 	mov.w	r3, r8, asr #31
   8170e:	ebc3 05a5 	rsb	r5, r3, r5, asr #2
   81712:	eb05 0585 	add.w	r5, r5, r5, lsl #2
   81716:	eba8 0545 	sub.w	r5, r8, r5, lsl #1
	third = ((temp_2 - temp_1) / 10) + 48;		/* To get the 10th number*/
	
	fourth = temp_1 + 48;						
	lcdWrite(zero, HIGH);
   8171a:	ebc9 0000 	rsb	r0, r9, r0
   8171e:	fb82 3200 	smull	r3, r2, r2, r0
   81722:	17c0      	asrs	r0, r0, #31
   81724:	ebc0 3022 	rsb	r0, r0, r2, asr #12
   81728:	3030      	adds	r0, #48	; 0x30
   8172a:	2101      	movs	r1, #1
   8172c:	b2c0      	uxtb	r0, r0
   8172e:	4e18      	ldr	r6, [pc, #96]	; (81790 <lcdWrite4DigitNumber+0xcc>)
   81730:	47b0      	blx	r6
	lcdWrite(first, HIGH);	
   81732:	ebc4 0909 	rsb	r9, r4, r9
   81736:	fb8b 3009 	smull	r3, r0, fp, r9
   8173a:	ea4f 79e9 	mov.w	r9, r9, asr #31
   8173e:	ebc9 10a0 	rsb	r0, r9, r0, asr #6
   81742:	3030      	adds	r0, #48	; 0x30
   81744:	2101      	movs	r1, #1
   81746:	b2c0      	uxtb	r0, r0
   81748:	47b0      	blx	r6
	lcdWrite(second, HIGH);
   8174a:	ebc8 0404 	rsb	r4, r8, r4
   8174e:	fb8a 3004 	smull	r3, r0, sl, r4
   81752:	17e4      	asrs	r4, r4, #31
   81754:	ebc4 1060 	rsb	r0, r4, r0, asr #5
   81758:	3030      	adds	r0, #48	; 0x30
   8175a:	2101      	movs	r1, #1
   8175c:	b2c0      	uxtb	r0, r0
   8175e:	47b0      	blx	r6
	lcdWrite(third, HIGH);
   81760:	ebc5 0308 	rsb	r3, r5, r8
   81764:	fb87 2003 	smull	r2, r0, r7, r3
   81768:	17db      	asrs	r3, r3, #31
   8176a:	ebc3 00a0 	rsb	r0, r3, r0, asr #2
   8176e:	3030      	adds	r0, #48	; 0x30
   81770:	2101      	movs	r1, #1
   81772:	b2c0      	uxtb	r0, r0
   81774:	47b0      	blx	r6
	lcdWrite(fourth, HIGH);
   81776:	f105 0030 	add.w	r0, r5, #48	; 0x30
   8177a:	2101      	movs	r1, #1
   8177c:	b2c0      	uxtb	r0, r0
   8177e:	47b0      	blx	r6
		
	return 0;	
}
   81780:	2000      	movs	r0, #0
   81782:	e8bd 8ff8 	ldmia.w	sp!, {r3, r4, r5, r6, r7, r8, r9, sl, fp, pc}
   81786:	bf00      	nop
   81788:	68db8bad 	.word	0x68db8bad
   8178c:	66666667 	.word	0x66666667
   81790:	000817bd 	.word	0x000817bd
   81794:	10624dd3 	.word	0x10624dd3
   81798:	51eb851f 	.word	0x51eb851f

0008179c <lcdWriteAsciiString>:

int lcdWriteAsciiString(const char *string)
{
   8179c:	b570      	push	{r4, r5, r6, lr}
   8179e:	4604      	mov	r4, r0
	while(*string !='\0') {			/* Writes out one char at a time*/
   817a0:	7800      	ldrb	r0, [r0, #0]
   817a2:	b138      	cbz	r0, 817b4 <lcdWriteAsciiString+0x18>
		lcdWrite(*string,HIGH);
   817a4:	2601      	movs	r6, #1
   817a6:	4d04      	ldr	r5, [pc, #16]	; (817b8 <lcdWriteAsciiString+0x1c>)
   817a8:	4631      	mov	r1, r6
   817aa:	47a8      	blx	r5
	return 0;	
}

int lcdWriteAsciiString(const char *string)
{
	while(*string !='\0') {			/* Writes out one char at a time*/
   817ac:	f814 0f01 	ldrb.w	r0, [r4, #1]!
   817b0:	2800      	cmp	r0, #0
   817b2:	d1f9      	bne.n	817a8 <lcdWriteAsciiString+0xc>
		lcdWrite(*string,HIGH);
		string++;
	}
	return 0;	
}
   817b4:	2000      	movs	r0, #0
   817b6:	bd70      	pop	{r4, r5, r6, pc}
   817b8:	000817bd 	.word	0x000817bd

000817bc <lcdWrite>:
/*
 *	writes the byte (8 bits) to the LCD display as two consecutive 4 bits 
 *	type = 0 controls the display
 *	type = 1 writes the content of the byte (usually interpreted as ASCII-code) to the display
 */
{
   817bc:	b5f0      	push	{r4, r5, r6, r7, lr}
   817be:	b085      	sub	sp, #20
   817c0:	4605      	mov	r5, r0
   817c2:	460e      	mov	r6, r1
	/* In it's infinite wisdom the shield has the data pins in mirrored order compared to the Due board */
	uint8_t mirror_pin[16]={0b0000,0b1000,0b0100,0b1100,0b0010,0b1010,0b0110,0b1110,0b0001,0b1001,0b0101,0b1101,0b0011,0b1011,0b0111,0b1111};
   817c4:	4b1e      	ldr	r3, [pc, #120]	; (81840 <lcdWrite+0x84>)
   817c6:	466c      	mov	r4, sp
   817c8:	6818      	ldr	r0, [r3, #0]
   817ca:	6859      	ldr	r1, [r3, #4]
   817cc:	689a      	ldr	r2, [r3, #8]
   817ce:	68db      	ldr	r3, [r3, #12]
   817d0:	c40f      	stmia	r4!, {r0, r1, r2, r3}

	byte_orig = byte;

	/* write the first 4 bits to the shield. */
	byte = byte>>4;
	byte = mirror_pin[byte];
   817d2:	eb04 1315 	add.w	r3, r4, r5, lsr #4
	byte32 = (uint32_t)byte << 23;
   817d6:	f813 3c10 	ldrb.w	r3, [r3, #-16]
   817da:	05db      	lsls	r3, r3, #23
__always_inline static void arch_ioport_set_pin_level(ioport_pin_t pin,
		bool level)
{
	Pio *base = arch_ioport_pin_to_base(pin);

	if (level) {
   817dc:	b126      	cbz	r6, 817e8 <lcdWrite+0x2c>
		base->PIO_SODR = arch_ioport_pin_to_mask(pin);
   817de:	f44f 0180 	mov.w	r1, #4194304	; 0x400000
   817e2:	4a18      	ldr	r2, [pc, #96]	; (81844 <lcdWrite+0x88>)
   817e4:	6311      	str	r1, [r2, #48]	; 0x30
   817e6:	e003      	b.n	817f0 <lcdWrite+0x34>
	} else {
		base->PIO_CODR = arch_ioport_pin_to_mask(pin);
   817e8:	f44f 0180 	mov.w	r1, #4194304	; 0x400000
   817ec:	4a15      	ldr	r2, [pc, #84]	; (81844 <lcdWrite+0x88>)
   817ee:	6351      	str	r1, [r2, #52]	; 0x34
__always_inline static void arch_ioport_set_port_level(ioport_port_t port,
		ioport_port_mask_t mask, ioport_port_mask_t level)
{
	Pio *base = arch_ioport_port_to_base(port);

	base->PIO_SODR = mask & level;
   817f0:	f003 62f0 	and.w	r2, r3, #125829120	; 0x7800000
   817f4:	4c13      	ldr	r4, [pc, #76]	; (81844 <lcdWrite+0x88>)
   817f6:	6322      	str	r2, [r4, #48]	; 0x30
	base->PIO_CODR = mask & ~level;
   817f8:	43db      	mvns	r3, r3
   817fa:	f003 63f0 	and.w	r3, r3, #125829120	; 0x7800000
   817fe:	6363      	str	r3, [r4, #52]	; 0x34
		bool level)
{
	Pio *base = arch_ioport_pin_to_base(pin);

	if (level) {
		base->PIO_SODR = arch_ioport_pin_to_mask(pin);
   81800:	f44f 1700 	mov.w	r7, #2097152	; 0x200000
   81804:	6327      	str	r7, [r4, #48]	; 0x30
	mirrored_output = byte<<4;
	
	ioport_set_pin_level(LCD_RS, type); 
	ioport_set_port_level(IOPORT_PIOC, LCD_mask_D4_D7, byte32);
	ioport_set_pin_level(LCD_Enable, HIGH);
	delayMicroseconds(1);
   81806:	2001      	movs	r0, #1
   81808:	4e0f      	ldr	r6, [pc, #60]	; (81848 <lcdWrite+0x8c>)
   8180a:	47b0      	blx	r6
	} else {
		base->PIO_CODR = arch_ioport_pin_to_mask(pin);
   8180c:	6367      	str	r7, [r4, #52]	; 0x34
	ioport_set_pin_level(LCD_Enable, LOW);
	
	delayMicroseconds(100);
   8180e:	2064      	movs	r0, #100	; 0x64
   81810:	47b0      	blx	r6
	
	/* write the second 4 bits to the shield. */
	byte = byte_orig;
	byte = byte & 0x0f;
	byte = mirror_pin[byte];
   81812:	f005 050f 	and.w	r5, r5, #15
   81816:	ab04      	add	r3, sp, #16
   81818:	441d      	add	r5, r3
	byte32 = (uint32_t)byte<<23;
   8181a:	f815 3c10 	ldrb.w	r3, [r5, #-16]
   8181e:	05db      	lsls	r3, r3, #23
__always_inline static void arch_ioport_set_port_level(ioport_port_t port,
		ioport_port_mask_t mask, ioport_port_mask_t level)
{
	Pio *base = arch_ioport_port_to_base(port);

	base->PIO_SODR = mask & level;
   81820:	f003 62f0 	and.w	r2, r3, #125829120	; 0x7800000
   81824:	6322      	str	r2, [r4, #48]	; 0x30
	base->PIO_CODR = mask & ~level;
   81826:	43db      	mvns	r3, r3
   81828:	f003 63f0 	and.w	r3, r3, #125829120	; 0x7800000
   8182c:	6363      	str	r3, [r4, #52]	; 0x34
		bool level)
{
	Pio *base = arch_ioport_pin_to_base(pin);

	if (level) {
		base->PIO_SODR = arch_ioport_pin_to_mask(pin);
   8182e:	6327      	str	r7, [r4, #48]	; 0x30
	mirrored_output = mirrored_output + byte;

	ioport_set_port_level(IOPORT_PIOC, LCD_mask_D4_D7, byte32);
	ioport_set_pin_level(LCD_Enable, HIGH);
	delayMicroseconds(1);
   81830:	2001      	movs	r0, #1
   81832:	47b0      	blx	r6
	} else {
		base->PIO_CODR = arch_ioport_pin_to_mask(pin);
   81834:	6367      	str	r7, [r4, #52]	; 0x34
	ioport_set_pin_level(LCD_Enable, LOW);
	delayMicroseconds(100);
   81836:	2064      	movs	r0, #100	; 0x64
   81838:	47b0      	blx	r6
	
	return 0;
}
   8183a:	2000      	movs	r0, #0
   8183c:	b005      	add	sp, #20
   8183e:	bdf0      	pop	{r4, r5, r6, r7, pc}
   81840:	00083e84 	.word	0x00083e84
   81844:	400e1200 	.word	0x400e1200
   81848:	00080339 	.word	0x00080339

0008184c <lcdInit>:
#include <asf.h>
#include "lcdFunctions.h"
#include "Delay/DelayFunctions.h"	/* The sam3x8e microcontroller can write faster than the LCD controller can handle its inputs */

int lcdInit(void)		/* Initializes the display on the LCD shield, returns 1 if everything is ok */
{
   8184c:	e92d 47f0 	stmdb	sp!, {r4, r5, r6, r7, r8, r9, sl, lr}
		enum ioport_direction dir)
{
	Pio *base = arch_ioport_pin_to_base(pin);

	if (dir == IOPORT_DIR_OUTPUT) {
		base->PIO_OER = arch_ioport_pin_to_mask(pin);
   81850:	4c34      	ldr	r4, [pc, #208]	; (81924 <lcdInit+0xd8>)
   81852:	f44f 0780 	mov.w	r7, #4194304	; 0x400000
   81856:	6127      	str	r7, [r4, #16]
	} else if (dir == IOPORT_DIR_INPUT) {
		base->PIO_ODR = arch_ioport_pin_to_mask(pin);
	}

	base->PIO_OWER = arch_ioport_pin_to_mask(pin);
   81858:	f8c4 70a0 	str.w	r7, [r4, #160]	; 0xa0
		enum ioport_direction dir)
{
	Pio *base = arch_ioport_pin_to_base(pin);

	if (dir == IOPORT_DIR_OUTPUT) {
		base->PIO_OER = arch_ioport_pin_to_mask(pin);
   8185c:	f44f 1500 	mov.w	r5, #2097152	; 0x200000
   81860:	6125      	str	r5, [r4, #16]
	} else if (dir == IOPORT_DIR_INPUT) {
		base->PIO_ODR = arch_ioport_pin_to_mask(pin);
	}

	base->PIO_OWER = arch_ioport_pin_to_mask(pin);
   81862:	f8c4 50a0 	str.w	r5, [r4, #160]	; 0xa0
		ioport_port_mask_t mask, enum ioport_direction group_direction)
{
	Pio *base = arch_ioport_port_to_base(port);

	if (group_direction == IOPORT_DIR_OUTPUT) {
		base->PIO_OER = mask;
   81866:	f04f 63f0 	mov.w	r3, #125829120	; 0x7800000
   8186a:	6123      	str	r3, [r4, #16]
	} else if (group_direction == IOPORT_DIR_INPUT) {
		base->PIO_ODR = mask;
	}

	base->PIO_OWER = mask;
   8186c:	f8c4 30a0 	str.w	r3, [r4, #160]	; 0xa0
	Pio *base = arch_ioport_pin_to_base(pin);

	if (level) {
		base->PIO_SODR = arch_ioport_pin_to_mask(pin);
	} else {
		base->PIO_CODR = arch_ioport_pin_to_mask(pin);
   81870:	6365      	str	r5, [r4, #52]	; 0x34
	/* At power on */
	ioport_set_pin_dir(LCD_RS, IOPORT_DIR_OUTPUT);
	ioport_set_pin_dir(LCD_Enable, IOPORT_DIR_OUTPUT);
	ioport_set_port_dir(IOPORT_PIOC, LCD_mask_D4_D7, IOPORT_DIR_OUTPUT);
	ioport_set_pin_level(LCD_Enable, LOW);
	delayMicroseconds(30000);		/* wait > 15 ms */
   81872:	f247 5030 	movw	r0, #30000	; 0x7530
   81876:	4e2c      	ldr	r6, [pc, #176]	; (81928 <lcdInit+0xdc>)
   81878:	47b0      	blx	r6
   8187a:	6367      	str	r7, [r4, #52]	; 0x34
		bool level)
{
	Pio *base = arch_ioport_pin_to_base(pin);

	if (level) {
		base->PIO_SODR = arch_ioport_pin_to_mask(pin);
   8187c:	f04f 6a80 	mov.w	sl, #67108864	; 0x4000000
   81880:	f8c4 a030 	str.w	sl, [r4, #48]	; 0x30
   81884:	f04f 7900 	mov.w	r9, #33554432	; 0x2000000
   81888:	f8c4 9030 	str.w	r9, [r4, #48]	; 0x30
	} else {
		base->PIO_CODR = arch_ioport_pin_to_mask(pin);
   8188c:	f04f 7880 	mov.w	r8, #16777216	; 0x1000000
   81890:	f8c4 8034 	str.w	r8, [r4, #52]	; 0x34
   81894:	f44f 0700 	mov.w	r7, #8388608	; 0x800000
   81898:	6367      	str	r7, [r4, #52]	; 0x34
		bool level)
{
	Pio *base = arch_ioport_pin_to_base(pin);

	if (level) {
		base->PIO_SODR = arch_ioport_pin_to_mask(pin);
   8189a:	6325      	str	r5, [r4, #48]	; 0x30
	ioport_set_pin_level(LCD_D4, HIGH);
	ioport_set_pin_level(LCD_D5, HIGH);
	ioport_set_pin_level(LCD_D6, LOW);
	ioport_set_pin_level(LCD_D7, LOW);
	ioport_set_pin_level(LCD_Enable, HIGH);
	delayMicroseconds(1);		/* wait 1 us */
   8189c:	2001      	movs	r0, #1
   8189e:	47b0      	blx	r6
	} else {
		base->PIO_CODR = arch_ioport_pin_to_mask(pin);
   818a0:	6365      	str	r5, [r4, #52]	; 0x34
	ioport_set_pin_level(LCD_Enable, LOW);
	delayMicroseconds(4100);	/* wait for more than 4,1 ms */
   818a2:	f241 0004 	movw	r0, #4100	; 0x1004
   818a6:	47b0      	blx	r6
		bool level)
{
	Pio *base = arch_ioport_pin_to_base(pin);

	if (level) {
		base->PIO_SODR = arch_ioport_pin_to_mask(pin);
   818a8:	f8c4 a030 	str.w	sl, [r4, #48]	; 0x30
   818ac:	f8c4 9030 	str.w	r9, [r4, #48]	; 0x30
	} else {
		base->PIO_CODR = arch_ioport_pin_to_mask(pin);
   818b0:	f8c4 8034 	str.w	r8, [r4, #52]	; 0x34
   818b4:	6367      	str	r7, [r4, #52]	; 0x34
		bool level)
{
	Pio *base = arch_ioport_pin_to_base(pin);

	if (level) {
		base->PIO_SODR = arch_ioport_pin_to_mask(pin);
   818b6:	6325      	str	r5, [r4, #48]	; 0x30
	ioport_set_pin_level(LCD_D4, HIGH);
	ioport_set_pin_level(LCD_D5, HIGH);
	ioport_set_pin_level(LCD_D6, LOW);
	ioport_set_pin_level(LCD_D7, LOW);
	ioport_set_pin_level(LCD_Enable, HIGH);
	delayMicroseconds(1);	/* delay 1 us */
   818b8:	2001      	movs	r0, #1
   818ba:	47b0      	blx	r6
	} else {
		base->PIO_CODR = arch_ioport_pin_to_mask(pin);
   818bc:	6365      	str	r5, [r4, #52]	; 0x34
	ioport_set_pin_level(LCD_Enable, LOW);
	delayMicroseconds(100);	/* wait 100 us */
   818be:	2064      	movs	r0, #100	; 0x64
   818c0:	47b0      	blx	r6
		bool level)
{
	Pio *base = arch_ioport_pin_to_base(pin);

	if (level) {
		base->PIO_SODR = arch_ioport_pin_to_mask(pin);
   818c2:	f8c4 a030 	str.w	sl, [r4, #48]	; 0x30
   818c6:	f8c4 9030 	str.w	r9, [r4, #48]	; 0x30
	} else {
		base->PIO_CODR = arch_ioport_pin_to_mask(pin);
   818ca:	f8c4 8034 	str.w	r8, [r4, #52]	; 0x34
   818ce:	6367      	str	r7, [r4, #52]	; 0x34
		bool level)
{
	Pio *base = arch_ioport_pin_to_base(pin);

	if (level) {
		base->PIO_SODR = arch_ioport_pin_to_mask(pin);
   818d0:	6325      	str	r5, [r4, #48]	; 0x30
	ioport_set_pin_level(LCD_D4, HIGH);
	ioport_set_pin_level(LCD_D5, HIGH);
	ioport_set_pin_level(LCD_D6, LOW);
	ioport_set_pin_level(LCD_D7, LOW);
	ioport_set_pin_level(LCD_Enable, HIGH);
	delayMicroseconds(1);	/* wait 1 us */
   818d2:	2001      	movs	r0, #1
   818d4:	47b0      	blx	r6
	} else {
		base->PIO_CODR = arch_ioport_pin_to_mask(pin);
   818d6:	6365      	str	r5, [r4, #52]	; 0x34
	ioport_set_pin_level(LCD_Enable, LOW);		
	delayMicroseconds(100);	/* wait 100 us */
   818d8:	2064      	movs	r0, #100	; 0x64
   818da:	47b0      	blx	r6
   818dc:	f8c4 a034 	str.w	sl, [r4, #52]	; 0x34
		bool level)
{
	Pio *base = arch_ioport_pin_to_base(pin);

	if (level) {
		base->PIO_SODR = arch_ioport_pin_to_mask(pin);
   818e0:	f8c4 9030 	str.w	r9, [r4, #48]	; 0x30
	} else {
		base->PIO_CODR = arch_ioport_pin_to_mask(pin);
   818e4:	f8c4 8034 	str.w	r8, [r4, #52]	; 0x34
   818e8:	6367      	str	r7, [r4, #52]	; 0x34
		bool level)
{
	Pio *base = arch_ioport_pin_to_base(pin);

	if (level) {
		base->PIO_SODR = arch_ioport_pin_to_mask(pin);
   818ea:	6325      	str	r5, [r4, #48]	; 0x30
	ioport_set_pin_level(LCD_D4, LOW);
	ioport_set_pin_level(LCD_D5, HIGH);
	ioport_set_pin_level(LCD_D6, LOW);
	ioport_set_pin_level(LCD_D7, LOW);
	ioport_set_pin_level(LCD_Enable, HIGH);
	delayMicroseconds(1);
   818ec:	2001      	movs	r0, #1
   818ee:	47b0      	blx	r6
	} else {
		base->PIO_CODR = arch_ioport_pin_to_mask(pin);
   818f0:	6365      	str	r5, [r4, #52]	; 0x34
	ioport_set_pin_level(LCD_Enable, LOW);
	delayMicroseconds(100);
   818f2:	2064      	movs	r0, #100	; 0x64
   818f4:	47b0      	blx	r6
	lcdWrite(0b00101000, LOW);		/* Two rows, small font */
   818f6:	2100      	movs	r1, #0
   818f8:	2028      	movs	r0, #40	; 0x28
   818fa:	4c0c      	ldr	r4, [pc, #48]	; (8192c <lcdInit+0xe0>)
   818fc:	47a0      	blx	r4
	lcdWrite(0b00001000, LOW);		/* Display off */
   818fe:	2100      	movs	r1, #0
   81900:	2008      	movs	r0, #8
   81902:	47a0      	blx	r4
	lcdWrite(0b00000001, LOW);		/* Display clear */
   81904:	2100      	movs	r1, #0
   81906:	2001      	movs	r0, #1
   81908:	47a0      	blx	r4
	delayMicroseconds(3000);
   8190a:	f640 30b8 	movw	r0, #3000	; 0xbb8
   8190e:	47b0      	blx	r6
	lcdWrite(0b00000110, LOW);		/* Entry mode set: move cursor right, no display shift */
   81910:	2100      	movs	r1, #0
   81912:	2006      	movs	r0, #6
   81914:	47a0      	blx	r4
	lcdWrite(0b00001111 ,LOW);		/* Display on, cursor on, blinking on */
   81916:	2100      	movs	r1, #0
   81918:	200f      	movs	r0, #15
   8191a:	47a0      	blx	r4

	all_ok = 0;					/* simple return statement showing that the initialization of the LCD has completed */
	return all_ok;
}
   8191c:	2000      	movs	r0, #0
   8191e:	e8bd 87f0 	ldmia.w	sp!, {r4, r5, r6, r7, r8, r9, sl, pc}
   81922:	bf00      	nop
   81924:	400e1200 	.word	0x400e1200
   81928:	00080339 	.word	0x00080339
   8192c:	000817bd 	.word	0x000817bd

00081930 <lcdClearDisplay>:
	
	return 0;
}

int lcdClearDisplay(void)
{
   81930:	b508      	push	{r3, lr}
	lcdWrite(0b00000001, LOW);		/* Display clear */
   81932:	2100      	movs	r1, #0
   81934:	2001      	movs	r0, #1
   81936:	4b04      	ldr	r3, [pc, #16]	; (81948 <lcdClearDisplay+0x18>)
   81938:	4798      	blx	r3
	delayMicroseconds(3000);		
   8193a:	f640 30b8 	movw	r0, #3000	; 0xbb8
   8193e:	4b03      	ldr	r3, [pc, #12]	; (8194c <lcdClearDisplay+0x1c>)
   81940:	4798      	blx	r3
	return 0;
}
   81942:	2000      	movs	r0, #0
   81944:	bd08      	pop	{r3, pc}
   81946:	bf00      	nop
   81948:	000817bd 	.word	0x000817bd
   8194c:	00080339 	.word	0x00080339

00081950 <usart_serial_getchar>:
 * \param p_usart   Base address of the USART instance.
 * \param data   Data to read
 *
 */
static inline void usart_serial_getchar(usart_if p_usart, uint8_t *data)
{
   81950:	b5f0      	push	{r4, r5, r6, r7, lr}
   81952:	b083      	sub	sp, #12
   81954:	4604      	mov	r4, r0
   81956:	460d      	mov	r5, r1
	uint32_t val = 0;
   81958:	2300      	movs	r3, #0
   8195a:	9301      	str	r3, [sp, #4]

	/* Avoid Cppcheck Warning */
	UNUSED(val);

#ifdef UART
	if (UART == (Uart*)p_usart) {
   8195c:	4b1f      	ldr	r3, [pc, #124]	; (819dc <usart_serial_getchar+0x8c>)
   8195e:	4298      	cmp	r0, r3
   81960:	d107      	bne.n	81972 <usart_serial_getchar+0x22>
		while (uart_read((Uart*)p_usart, data));
   81962:	461f      	mov	r7, r3
   81964:	4e1e      	ldr	r6, [pc, #120]	; (819e0 <usart_serial_getchar+0x90>)
   81966:	4629      	mov	r1, r5
   81968:	4638      	mov	r0, r7
   8196a:	47b0      	blx	r6
   8196c:	2800      	cmp	r0, #0
   8196e:	d1fa      	bne.n	81966 <usart_serial_getchar+0x16>
   81970:	e019      	b.n	819a6 <usart_serial_getchar+0x56>
		while (usart_read(p_usart, &val));
		*data = (uint8_t)(val & 0xFF);
	}
#else
# ifdef USART0
	if (USART0 == p_usart) {
   81972:	4b1c      	ldr	r3, [pc, #112]	; (819e4 <usart_serial_getchar+0x94>)
   81974:	4298      	cmp	r0, r3
   81976:	d109      	bne.n	8198c <usart_serial_getchar+0x3c>
		while (usart_read(p_usart, &val));
   81978:	461f      	mov	r7, r3
   8197a:	4e1b      	ldr	r6, [pc, #108]	; (819e8 <usart_serial_getchar+0x98>)
   8197c:	a901      	add	r1, sp, #4
   8197e:	4638      	mov	r0, r7
   81980:	47b0      	blx	r6
   81982:	2800      	cmp	r0, #0
   81984:	d1fa      	bne.n	8197c <usart_serial_getchar+0x2c>
		*data = (uint8_t)(val & 0xFF);
   81986:	9b01      	ldr	r3, [sp, #4]
   81988:	702b      	strb	r3, [r5, #0]
   8198a:	e019      	b.n	819c0 <usart_serial_getchar+0x70>
	}
# endif
# ifdef USART1
	if (USART1 == p_usart) {
   8198c:	4b17      	ldr	r3, [pc, #92]	; (819ec <usart_serial_getchar+0x9c>)
   8198e:	4298      	cmp	r0, r3
   81990:	d109      	bne.n	819a6 <usart_serial_getchar+0x56>
		while (usart_read(p_usart, &val));
   81992:	461e      	mov	r6, r3
   81994:	4c14      	ldr	r4, [pc, #80]	; (819e8 <usart_serial_getchar+0x98>)
   81996:	a901      	add	r1, sp, #4
   81998:	4630      	mov	r0, r6
   8199a:	47a0      	blx	r4
   8199c:	2800      	cmp	r0, #0
   8199e:	d1fa      	bne.n	81996 <usart_serial_getchar+0x46>
		*data = (uint8_t)(val & 0xFF);
   819a0:	9b01      	ldr	r3, [sp, #4]
   819a2:	702b      	strb	r3, [r5, #0]
   819a4:	e018      	b.n	819d8 <usart_serial_getchar+0x88>
	}
# endif
# ifdef USART2
	if (USART2 == p_usart) {
   819a6:	4b12      	ldr	r3, [pc, #72]	; (819f0 <usart_serial_getchar+0xa0>)
   819a8:	429c      	cmp	r4, r3
   819aa:	d109      	bne.n	819c0 <usart_serial_getchar+0x70>
		while (usart_read(p_usart, &val));
   819ac:	461e      	mov	r6, r3
   819ae:	4c0e      	ldr	r4, [pc, #56]	; (819e8 <usart_serial_getchar+0x98>)
   819b0:	a901      	add	r1, sp, #4
   819b2:	4630      	mov	r0, r6
   819b4:	47a0      	blx	r4
   819b6:	2800      	cmp	r0, #0
   819b8:	d1fa      	bne.n	819b0 <usart_serial_getchar+0x60>
		*data = (uint8_t)(val & 0xFF);
   819ba:	9b01      	ldr	r3, [sp, #4]
   819bc:	702b      	strb	r3, [r5, #0]
   819be:	e00b      	b.n	819d8 <usart_serial_getchar+0x88>
	}
# endif
# ifdef USART3
	if (USART3 == p_usart) {
   819c0:	4b0c      	ldr	r3, [pc, #48]	; (819f4 <usart_serial_getchar+0xa4>)
   819c2:	429c      	cmp	r4, r3
   819c4:	d108      	bne.n	819d8 <usart_serial_getchar+0x88>
		while (usart_read(p_usart, &val));
   819c6:	461e      	mov	r6, r3
   819c8:	4c07      	ldr	r4, [pc, #28]	; (819e8 <usart_serial_getchar+0x98>)
   819ca:	a901      	add	r1, sp, #4
   819cc:	4630      	mov	r0, r6
   819ce:	47a0      	blx	r4
   819d0:	2800      	cmp	r0, #0
   819d2:	d1fa      	bne.n	819ca <usart_serial_getchar+0x7a>
		*data = (uint8_t)(val & 0xFF);
   819d4:	9b01      	ldr	r3, [sp, #4]
   819d6:	702b      	strb	r3, [r5, #0]
		*data = (uint8_t)(val & 0xFF);
	}
# endif
#endif /* ifdef USART */

}
   819d8:	b003      	add	sp, #12
   819da:	bdf0      	pop	{r4, r5, r6, r7, pc}
   819dc:	400e0800 	.word	0x400e0800
   819e0:	000802bd 	.word	0x000802bd
   819e4:	40098000 	.word	0x40098000
   819e8:	000802e5 	.word	0x000802e5
   819ec:	4009c000 	.word	0x4009c000
   819f0:	400a0000 	.word	0x400a0000
   819f4:	400a4000 	.word	0x400a4000

000819f8 <usart_serial_putchar>:
 *   \retval 1  The character was written.
 *   \retval 0  The function timed out before the USART transmitter became
 * ready to send.
 */
static inline int usart_serial_putchar(usart_if p_usart, const uint8_t c)
{
   819f8:	b570      	push	{r4, r5, r6, lr}
   819fa:	460c      	mov	r4, r1
#ifdef UART
	if (UART == (Uart*)p_usart) {
   819fc:	4b1e      	ldr	r3, [pc, #120]	; (81a78 <usart_serial_putchar+0x80>)
   819fe:	4298      	cmp	r0, r3
   81a00:	d108      	bne.n	81a14 <usart_serial_putchar+0x1c>
		while (uart_write((Uart*)p_usart, c)!=0);
   81a02:	461e      	mov	r6, r3
   81a04:	4d1d      	ldr	r5, [pc, #116]	; (81a7c <usart_serial_putchar+0x84>)
   81a06:	4621      	mov	r1, r4
   81a08:	4630      	mov	r0, r6
   81a0a:	47a8      	blx	r5
   81a0c:	2800      	cmp	r0, #0
   81a0e:	d1fa      	bne.n	81a06 <usart_serial_putchar+0xe>
		return 1;
   81a10:	2001      	movs	r0, #1
   81a12:	bd70      	pop	{r4, r5, r6, pc}
		while (usart_write(p_usart, c)!=0);
		return 1;
	}
#else
# ifdef USART0
	if (USART0 == p_usart) {
   81a14:	4b1a      	ldr	r3, [pc, #104]	; (81a80 <usart_serial_putchar+0x88>)
   81a16:	4298      	cmp	r0, r3
   81a18:	d108      	bne.n	81a2c <usart_serial_putchar+0x34>
		while (usart_write(p_usart, c)!=0);
   81a1a:	461e      	mov	r6, r3
   81a1c:	4d19      	ldr	r5, [pc, #100]	; (81a84 <usart_serial_putchar+0x8c>)
   81a1e:	4621      	mov	r1, r4
   81a20:	4630      	mov	r0, r6
   81a22:	47a8      	blx	r5
   81a24:	2800      	cmp	r0, #0
   81a26:	d1fa      	bne.n	81a1e <usart_serial_putchar+0x26>
		return 1;
   81a28:	2001      	movs	r0, #1
   81a2a:	bd70      	pop	{r4, r5, r6, pc}
	}
# endif
# ifdef USART1
	if (USART1 == p_usart) {
   81a2c:	4b16      	ldr	r3, [pc, #88]	; (81a88 <usart_serial_putchar+0x90>)
   81a2e:	4298      	cmp	r0, r3
   81a30:	d108      	bne.n	81a44 <usart_serial_putchar+0x4c>
		while (usart_write(p_usart, c)!=0);
   81a32:	461e      	mov	r6, r3
   81a34:	4d13      	ldr	r5, [pc, #76]	; (81a84 <usart_serial_putchar+0x8c>)
   81a36:	4621      	mov	r1, r4
   81a38:	4630      	mov	r0, r6
   81a3a:	47a8      	blx	r5
   81a3c:	2800      	cmp	r0, #0
   81a3e:	d1fa      	bne.n	81a36 <usart_serial_putchar+0x3e>
		return 1;
   81a40:	2001      	movs	r0, #1
   81a42:	bd70      	pop	{r4, r5, r6, pc}
	}
# endif
# ifdef USART2
	if (USART2 == p_usart) {
   81a44:	4b11      	ldr	r3, [pc, #68]	; (81a8c <usart_serial_putchar+0x94>)
   81a46:	4298      	cmp	r0, r3
   81a48:	d108      	bne.n	81a5c <usart_serial_putchar+0x64>
		while (usart_write(p_usart, c)!=0);
   81a4a:	461e      	mov	r6, r3
   81a4c:	4d0d      	ldr	r5, [pc, #52]	; (81a84 <usart_serial_putchar+0x8c>)
   81a4e:	4621      	mov	r1, r4
   81a50:	4630      	mov	r0, r6
   81a52:	47a8      	blx	r5
   81a54:	2800      	cmp	r0, #0
   81a56:	d1fa      	bne.n	81a4e <usart_serial_putchar+0x56>
		return 1;
   81a58:	2001      	movs	r0, #1
   81a5a:	bd70      	pop	{r4, r5, r6, pc}
	}
# endif
# ifdef USART3
	if (USART3 == p_usart) {
   81a5c:	4b0c      	ldr	r3, [pc, #48]	; (81a90 <usart_serial_putchar+0x98>)
   81a5e:	4298      	cmp	r0, r3
   81a60:	d108      	bne.n	81a74 <usart_serial_putchar+0x7c>
		while (usart_write(p_usart, c)!=0);
   81a62:	461e      	mov	r6, r3
   81a64:	4d07      	ldr	r5, [pc, #28]	; (81a84 <usart_serial_putchar+0x8c>)
   81a66:	4621      	mov	r1, r4
   81a68:	4630      	mov	r0, r6
   81a6a:	47a8      	blx	r5
   81a6c:	2800      	cmp	r0, #0
   81a6e:	d1fa      	bne.n	81a66 <usart_serial_putchar+0x6e>
		return 1;
   81a70:	2001      	movs	r0, #1
   81a72:	bd70      	pop	{r4, r5, r6, pc}
		return 1;
	}
# endif
#endif /* ifdef USART */

	return 0;
   81a74:	2000      	movs	r0, #0
}
   81a76:	bd70      	pop	{r4, r5, r6, pc}
   81a78:	400e0800 	.word	0x400e0800
   81a7c:	000802ad 	.word	0x000802ad
   81a80:	40098000 	.word	0x40098000
   81a84:	000802d1 	.word	0x000802d1
   81a88:	4009c000 	.word	0x4009c000
   81a8c:	400a0000 	.word	0x400a0000
   81a90:	400a4000 	.word	0x400a4000

00081a94 <configure_console>:
#include "Delay/DelayFunctions.h"
#include "LCD/LCDFunctions.h"
#include "LCD/lcdApplication.h"
uint32_t sampelfrekvens;
uint8_t numberofband;
void configure_console(void){
   81a94:	b530      	push	{r4, r5, lr}
   81a96:	b085      	sub	sp, #20
 *
 * \param ul_id Id (number) of the peripheral clock.
 */
static inline void sysclk_enable_peripheral_clock(uint32_t ul_id)
{
	pmc_enable_periph_clk(ul_id);
   81a98:	2008      	movs	r0, #8
   81a9a:	4d12      	ldr	r5, [pc, #72]	; (81ae4 <configure_console+0x50>)
   81a9c:	47a8      	blx	r5
 * \param opt         Options needed to set up RS232 communication (see \ref usart_options_t).
 *
 */
static inline void stdio_serial_init(volatile void *usart, const usart_serial_options_t *opt)
{
	stdio_base = (void *)usart;
   81a9e:	4c12      	ldr	r4, [pc, #72]	; (81ae8 <configure_console+0x54>)
   81aa0:	4b12      	ldr	r3, [pc, #72]	; (81aec <configure_console+0x58>)
   81aa2:	601c      	str	r4, [r3, #0]
	ptr_put = (int (*)(void volatile*,char))&usart_serial_putchar;
   81aa4:	4a12      	ldr	r2, [pc, #72]	; (81af0 <configure_console+0x5c>)
   81aa6:	4b13      	ldr	r3, [pc, #76]	; (81af4 <configure_console+0x60>)
   81aa8:	601a      	str	r2, [r3, #0]
	ptr_get = (void (*)(void volatile*,char*))&usart_serial_getchar;
   81aaa:	4a13      	ldr	r2, [pc, #76]	; (81af8 <configure_console+0x64>)
   81aac:	4b13      	ldr	r3, [pc, #76]	; (81afc <configure_console+0x68>)
   81aae:	601a      	str	r2, [r3, #0]
static inline void usart_serial_init(usart_if p_usart,
		usart_serial_options_t *opt)
{
#if ((!SAM4L) && (!SAMG55))
	sam_uart_opt_t uart_settings;
	uart_settings.ul_mck = sysclk_get_peripheral_hz();
   81ab0:	4b13      	ldr	r3, [pc, #76]	; (81b00 <configure_console+0x6c>)
   81ab2:	9301      	str	r3, [sp, #4]
	uart_settings.ul_baudrate = opt->baudrate;
   81ab4:	f44f 5316 	mov.w	r3, #9600	; 0x2580
   81ab8:	9302      	str	r3, [sp, #8]
	uart_settings.ul_mode = opt->paritytype;
   81aba:	f44f 6300 	mov.w	r3, #2048	; 0x800
   81abe:	9303      	str	r3, [sp, #12]
   81ac0:	2008      	movs	r0, #8
   81ac2:	47a8      	blx	r5
	
#ifdef UART
	if (UART == (Uart*)p_usart) {
		sysclk_enable_peripheral_clock(ID_UART);
		/* Configure UART */
		uart_init((Uart*)p_usart, &uart_settings);
   81ac4:	a901      	add	r1, sp, #4
   81ac6:	4620      	mov	r0, r4
   81ac8:	4b0e      	ldr	r3, [pc, #56]	; (81b04 <configure_console+0x70>)
   81aca:	4798      	blx	r3
	fdevopen((int (*)(char, FILE*))(_write),(int (*)(FILE*))(_read));
#  endif
#  if UC3 || SAM
	// For AVR32 and SAM GCC
	// Specify that stdout and stdin should not be buffered.
	setbuf(stdout, NULL);
   81acc:	4d0e      	ldr	r5, [pc, #56]	; (81b08 <configure_console+0x74>)
   81ace:	682b      	ldr	r3, [r5, #0]
   81ad0:	2100      	movs	r1, #0
   81ad2:	6898      	ldr	r0, [r3, #8]
   81ad4:	4c0d      	ldr	r4, [pc, #52]	; (81b0c <configure_console+0x78>)
   81ad6:	47a0      	blx	r4
	setbuf(stdin, NULL);
   81ad8:	682b      	ldr	r3, [r5, #0]
   81ada:	2100      	movs	r1, #0
   81adc:	6858      	ldr	r0, [r3, #4]
   81ade:	47a0      	blx	r4
		.baudrate = CONF_UART_BAUDRATE,
		.paritytype = CONF_UART_PARITY
	};
	sysclk_enable_peripheral_clock(CONSOLE_UART_ID);
	stdio_serial_init(CONF_UART,&uart_serial_options);
}
   81ae0:	b005      	add	sp, #20
   81ae2:	bd30      	pop	{r4, r5, pc}
   81ae4:	000820c1 	.word	0x000820c1
   81ae8:	400e0800 	.word	0x400e0800
   81aec:	20070cd0 	.word	0x20070cd0
   81af0:	000819f9 	.word	0x000819f9
   81af4:	20070ccc 	.word	0x20070ccc
   81af8:	00081951 	.word	0x00081951
   81afc:	20070cc8 	.word	0x20070cc8
   81b00:	0501bd00 	.word	0x0501bd00
   81b04:	00080275 	.word	0x00080275
   81b08:	20070430 	.word	0x20070430
   81b0c:	00082f29 	.word	0x00082f29

00081b10 <main>:

/************************************************************************/
/* Initerar de viktiga saker man behver                                */
/************************************************************************/
int main (void)
{
   81b10:	b570      	push	{r4, r5, r6, lr}
	uint32_t sampel;
	sysclk_init();
   81b12:	4b37      	ldr	r3, [pc, #220]	; (81bf0 <main+0xe0>)
   81b14:	4798      	blx	r3
	board_init();
   81b16:	4b37      	ldr	r3, [pc, #220]	; (81bf4 <main+0xe4>)
   81b18:	4798      	blx	r3
   81b1a:	200b      	movs	r0, #11
   81b1c:	4c36      	ldr	r4, [pc, #216]	; (81bf8 <main+0xe8>)
   81b1e:	47a0      	blx	r4
   81b20:	200c      	movs	r0, #12
   81b22:	47a0      	blx	r4
   81b24:	200d      	movs	r0, #13
   81b26:	47a0      	blx	r4
   81b28:	200e      	movs	r0, #14
   81b2a:	47a0      	blx	r4
		enum ioport_direction dir)
{
	Pio *base = arch_ioport_pin_to_base(pin);

	if (dir == IOPORT_DIR_OUTPUT) {
		base->PIO_OER = arch_ioport_pin_to_mask(pin);
   81b2c:	4b33      	ldr	r3, [pc, #204]	; (81bfc <main+0xec>)
   81b2e:	f04f 6280 	mov.w	r2, #67108864	; 0x4000000
   81b32:	611a      	str	r2, [r3, #16]
	} else if (dir == IOPORT_DIR_INPUT) {
		base->PIO_ODR = arch_ioport_pin_to_mask(pin);
	}

	base->PIO_OWER = arch_ioport_pin_to_mask(pin);
   81b34:	f8c3 20a0 	str.w	r2, [r3, #160]	; 0xa0
		enum ioport_direction dir)
{
	Pio *base = arch_ioport_pin_to_base(pin);

	if (dir == IOPORT_DIR_OUTPUT) {
		base->PIO_OER = arch_ioport_pin_to_mask(pin);
   81b38:	f44f 5280 	mov.w	r2, #4096	; 0x1000
   81b3c:	611a      	str	r2, [r3, #16]
	} else if (dir == IOPORT_DIR_INPUT) {
		base->PIO_ODR = arch_ioport_pin_to_mask(pin);
	}

	base->PIO_OWER = arch_ioport_pin_to_mask(pin);
   81b3e:	f8c3 20a0 	str.w	r2, [r3, #160]	; 0xa0
	Pio *base = arch_ioport_pin_to_base(pin);

	if (level) {
		base->PIO_SODR = arch_ioport_pin_to_mask(pin);
	} else {
		base->PIO_CODR = arch_ioport_pin_to_mask(pin);
   81b42:	635a      	str	r2, [r3, #52]	; 0x34
		enum ioport_direction dir)
{
	Pio *base = arch_ioport_pin_to_base(pin);

	if (dir == IOPORT_DIR_OUTPUT) {
		base->PIO_OER = arch_ioport_pin_to_mask(pin);
   81b44:	f44f 5200 	mov.w	r2, #8192	; 0x2000
   81b48:	611a      	str	r2, [r3, #16]
	} else if (dir == IOPORT_DIR_INPUT) {
		base->PIO_ODR = arch_ioport_pin_to_mask(pin);
	}

	base->PIO_OWER = arch_ioport_pin_to_mask(pin);
   81b4a:	f8c3 20a0 	str.w	r2, [r3, #160]	; 0xa0
	Pio *base = arch_ioport_pin_to_base(pin);

	if (level) {
		base->PIO_SODR = arch_ioport_pin_to_mask(pin);
	} else {
		base->PIO_CODR = arch_ioport_pin_to_mask(pin);
   81b4e:	635a      	str	r2, [r3, #52]	; 0x34
	ioport_set_pin_dir(CHECK_PIN, IOPORT_DIR_OUTPUT);
	ioport_set_pin_dir(pin20,IOPORT_DIR_OUTPUT);
	ioport_set_pin_level(pin20,LOW);
	ioport_set_pin_dir(pin21,IOPORT_DIR_OUTPUT);
	ioport_set_pin_level(pin21,LOW);
	configure_console();
   81b50:	4b2b      	ldr	r3, [pc, #172]	; (81c00 <main+0xf0>)
   81b52:	4798      	blx	r3
	adc_setup();
   81b54:	4b2b      	ldr	r3, [pc, #172]	; (81c04 <main+0xf4>)
   81b56:	4798      	blx	r3
	dac_setup();
   81b58:	4b2b      	ldr	r3, [pc, #172]	; (81c08 <main+0xf8>)
   81b5a:	4798      	blx	r3
	configure_tc();
   81b5c:	4b2b      	ldr	r3, [pc, #172]	; (81c0c <main+0xfc>)
   81b5e:	4798      	blx	r3
	delayInit();
   81b60:	4b2b      	ldr	r3, [pc, #172]	; (81c10 <main+0x100>)
   81b62:	4798      	blx	r3
	lcdInit();
   81b64:	4b2b      	ldr	r3, [pc, #172]	; (81c14 <main+0x104>)
   81b66:	4798      	blx	r3
	while(1){
		lcdClearDisplay();
   81b68:	4e2b      	ldr	r6, [pc, #172]	; (81c18 <main+0x108>)
		sampel= (42000000/sampelfrekvens);
   81b6a:	4d2c      	ldr	r5, [pc, #176]	; (81c1c <main+0x10c>)
		lcdWrite4DigitNumber(sampel);
   81b6c:	4c2c      	ldr	r4, [pc, #176]	; (81c20 <main+0x110>)
	dac_setup();
	configure_tc();
	delayInit();
	lcdInit();
	while(1){
		lcdClearDisplay();
   81b6e:	47b0      	blx	r6
		sampel= (42000000/sampelfrekvens);
		lcdWrite4DigitNumber(sampel);
   81b70:	6828      	ldr	r0, [r5, #0]
   81b72:	fbb4 f0f0 	udiv	r0, r4, r0
   81b76:	4b2b      	ldr	r3, [pc, #172]	; (81c24 <main+0x114>)
   81b78:	4798      	blx	r3
		lcdWriteAsciiString("Hz ");
   81b7a:	482b      	ldr	r0, [pc, #172]	; (81c28 <main+0x118>)
   81b7c:	4b2b      	ldr	r3, [pc, #172]	; (81c2c <main+0x11c>)
   81b7e:	4798      	blx	r3
	base->PIO_CODR = mask & ~level;
}

__always_inline static bool arch_ioport_get_pin_level(ioport_pin_t pin)
{
	return arch_ioport_pin_to_base(pin)->PIO_PDSR & arch_ioport_pin_to_mask(pin);
   81b80:	4b1e      	ldr	r3, [pc, #120]	; (81bfc <main+0xec>)
   81b82:	6bdb      	ldr	r3, [r3, #60]	; 0x3c
		if((ioport_get_pin_level(pin20)==0) && (ioport_get_pin_level(pin21)==0)){
   81b84:	f413 5f80 	tst.w	r3, #4096	; 0x1000
   81b88:	d108      	bne.n	81b9c <main+0x8c>
   81b8a:	4b1c      	ldr	r3, [pc, #112]	; (81bfc <main+0xec>)
   81b8c:	6bdb      	ldr	r3, [r3, #60]	; 0x3c
   81b8e:	f413 5f00 	tst.w	r3, #8192	; 0x2000
   81b92:	d103      	bne.n	81b9c <main+0x8c>
			lcdWriteAsciiString("4Band");
   81b94:	4826      	ldr	r0, [pc, #152]	; (81c30 <main+0x120>)
   81b96:	4b25      	ldr	r3, [pc, #148]	; (81c2c <main+0x11c>)
   81b98:	4798      	blx	r3
   81b9a:	e024      	b.n	81be6 <main+0xd6>
   81b9c:	4b17      	ldr	r3, [pc, #92]	; (81bfc <main+0xec>)
   81b9e:	6bdb      	ldr	r3, [r3, #60]	; 0x3c
		}else if((ioport_get_pin_level(pin20)==1) && (ioport_get_pin_level(pin21)==0)){		
   81ba0:	f413 5f80 	tst.w	r3, #4096	; 0x1000
   81ba4:	d00d      	beq.n	81bc2 <main+0xb2>
   81ba6:	4b15      	ldr	r3, [pc, #84]	; (81bfc <main+0xec>)
   81ba8:	6bdb      	ldr	r3, [r3, #60]	; 0x3c
   81baa:	f413 5f00 	tst.w	r3, #8192	; 0x2000
   81bae:	d108      	bne.n	81bc2 <main+0xb2>
			lcdWriteAsciiString("1Band ");
   81bb0:	4820      	ldr	r0, [pc, #128]	; (81c34 <main+0x124>)
   81bb2:	4b1e      	ldr	r3, [pc, #120]	; (81c2c <main+0x11c>)
   81bb4:	4798      	blx	r3
			lcdWrite(numberofband,HIGH);
   81bb6:	2101      	movs	r1, #1
   81bb8:	4b1f      	ldr	r3, [pc, #124]	; (81c38 <main+0x128>)
   81bba:	7818      	ldrb	r0, [r3, #0]
   81bbc:	4b1f      	ldr	r3, [pc, #124]	; (81c3c <main+0x12c>)
   81bbe:	4798      	blx	r3
   81bc0:	e011      	b.n	81be6 <main+0xd6>
   81bc2:	4b0e      	ldr	r3, [pc, #56]	; (81bfc <main+0xec>)
   81bc4:	6bdb      	ldr	r3, [r3, #60]	; 0x3c
		}else if((ioport_get_pin_level(pin20)==0) && (ioport_get_pin_level(pin21)==1)){
   81bc6:	f413 5f80 	tst.w	r3, #4096	; 0x1000
   81bca:	d10c      	bne.n	81be6 <main+0xd6>
   81bcc:	4b0b      	ldr	r3, [pc, #44]	; (81bfc <main+0xec>)
   81bce:	6bdb      	ldr	r3, [r3, #60]	; 0x3c
   81bd0:	f413 5f00 	tst.w	r3, #8192	; 0x2000
   81bd4:	d007      	beq.n	81be6 <main+0xd6>
			lcdWriteAsciiString("1Stop ");
   81bd6:	481a      	ldr	r0, [pc, #104]	; (81c40 <main+0x130>)
   81bd8:	4b14      	ldr	r3, [pc, #80]	; (81c2c <main+0x11c>)
   81bda:	4798      	blx	r3
			lcdWrite(numberofband,HIGH);
   81bdc:	2101      	movs	r1, #1
   81bde:	4b16      	ldr	r3, [pc, #88]	; (81c38 <main+0x128>)
   81be0:	7818      	ldrb	r0, [r3, #0]
   81be2:	4b16      	ldr	r3, [pc, #88]	; (81c3c <main+0x12c>)
   81be4:	4798      	blx	r3
		}
		delayMicroseconds(50000);
   81be6:	f24c 3050 	movw	r0, #50000	; 0xc350
   81bea:	4b16      	ldr	r3, [pc, #88]	; (81c44 <main+0x134>)
   81bec:	4798      	blx	r3
	}
   81bee:	e7be      	b.n	81b6e <main+0x5e>
   81bf0:	00081c49 	.word	0x00081c49
   81bf4:	00081ca9 	.word	0x00081ca9
   81bf8:	000820c1 	.word	0x000820c1
   81bfc:	400e1000 	.word	0x400e1000
   81c00:	00081a95 	.word	0x00081a95
   81c04:	000814c9 	.word	0x000814c9
   81c08:	00081545 	.word	0x00081545
   81c0c:	00081599 	.word	0x00081599
   81c10:	000802fd 	.word	0x000802fd
   81c14:	0008184d 	.word	0x0008184d
   81c18:	00081931 	.word	0x00081931
   81c1c:	20070cd4 	.word	0x20070cd4
   81c20:	0280de80 	.word	0x0280de80
   81c24:	000816c5 	.word	0x000816c5
   81c28:	00083e94 	.word	0x00083e94
   81c2c:	0008179d 	.word	0x0008179d
   81c30:	00083e98 	.word	0x00083e98
   81c34:	00083ea0 	.word	0x00083ea0
   81c38:	20070cd8 	.word	0x20070cd8
   81c3c:	000817bd 	.word	0x000817bd
   81c40:	00083ea8 	.word	0x00083ea8
   81c44:	00080339 	.word	0x00080339

00081c48 <sysclk_init>:
	pmc_disable_udpck();
}
#endif // CONFIG_USBCLK_SOURCE

void sysclk_init(void)
{
   81c48:	b510      	push	{r4, lr}
	struct pll_config pllcfg;

	/* Set a flash wait state depending on the new cpu frequency */
	system_init_flash(sysclk_get_cpu_hz());
   81c4a:	480d      	ldr	r0, [pc, #52]	; (81c80 <sysclk_init+0x38>)
   81c4c:	4b0d      	ldr	r3, [pc, #52]	; (81c84 <sysclk_init+0x3c>)
   81c4e:	4798      	blx	r3
		pmc_switch_mainck_to_fastrc(CKGR_MOR_MOSCRCF_12_MHz);
		break;


	case OSC_MAINCK_XTAL:
		pmc_switch_mainck_to_xtal(PMC_OSC_XTAL,
   81c50:	213e      	movs	r1, #62	; 0x3e
   81c52:	2000      	movs	r0, #0
   81c54:	4b0c      	ldr	r3, [pc, #48]	; (81c88 <sysclk_init+0x40>)
   81c56:	4798      	blx	r3
	case OSC_MAINCK_4M_RC:
	case OSC_MAINCK_8M_RC:
	case OSC_MAINCK_12M_RC:
	case OSC_MAINCK_XTAL:
	case OSC_MAINCK_BYPASS:
		return pmc_osc_is_ready_mainck();
   81c58:	4c0c      	ldr	r4, [pc, #48]	; (81c8c <sysclk_init+0x44>)
   81c5a:	47a0      	blx	r4
 *
 * \param id A number identifying the oscillator to wait for.
 */
static inline void osc_wait_ready(uint8_t id)
{
	while (!osc_is_ready(id)) {
   81c5c:	2800      	cmp	r0, #0
   81c5e:	d0fc      	beq.n	81c5a <sysclk_init+0x12>
static inline void pll_enable(const struct pll_config *p_cfg, uint32_t ul_pll_id)
{
	Assert(ul_pll_id < NR_PLLS);

	if (ul_pll_id == PLLA_ID) {
		pmc_disable_pllack(); // Always stop PLL first!
   81c60:	4b0b      	ldr	r3, [pc, #44]	; (81c90 <sysclk_init+0x48>)
   81c62:	4798      	blx	r3
		PMC->CKGR_PLLAR = CKGR_PLLAR_ONE | p_cfg->ctrl;
   81c64:	4a0b      	ldr	r2, [pc, #44]	; (81c94 <sysclk_init+0x4c>)
   81c66:	4b0c      	ldr	r3, [pc, #48]	; (81c98 <sysclk_init+0x50>)
   81c68:	629a      	str	r2, [r3, #40]	; 0x28
static inline uint32_t pll_is_locked(uint32_t ul_pll_id)
{
	Assert(ul_pll_id < NR_PLLS);

	if (ul_pll_id == PLLA_ID) {
		return pmc_is_locked_pllack();
   81c6a:	4c0c      	ldr	r4, [pc, #48]	; (81c9c <sysclk_init+0x54>)
   81c6c:	47a0      	blx	r4
 */
static inline int pll_wait_for_lock(unsigned int pll_id)
{
	Assert(pll_id < NR_PLLS);

	while (!pll_is_locked(pll_id)) {
   81c6e:	2800      	cmp	r0, #0
   81c70:	d0fc      	beq.n	81c6c <sysclk_init+0x24>
	else if (CONFIG_SYSCLK_SOURCE == SYSCLK_SRC_PLLACK) {
		pll_enable_source(CONFIG_PLL0_SOURCE);
		pll_config_defaults(&pllcfg, 0);
		pll_enable(&pllcfg, 0);
		pll_wait_for_lock(0);
		pmc_switch_mck_to_pllack(CONFIG_SYSCLK_PRES);
   81c72:	2010      	movs	r0, #16
   81c74:	4b0a      	ldr	r3, [pc, #40]	; (81ca0 <sysclk_init+0x58>)
   81c76:	4798      	blx	r3
		pll_wait_for_lock(1);
		pmc_switch_mck_to_upllck(CONFIG_SYSCLK_PRES);
	}

	/* Update the SystemFrequency variable */
	SystemCoreClockUpdate();
   81c78:	4b0a      	ldr	r3, [pc, #40]	; (81ca4 <sysclk_init+0x5c>)
   81c7a:	4798      	blx	r3
   81c7c:	bd10      	pop	{r4, pc}
   81c7e:	bf00      	nop
   81c80:	0501bd00 	.word	0x0501bd00
   81c84:	000822e1 	.word	0x000822e1
   81c88:	0008203d 	.word	0x0008203d
   81c8c:	00082091 	.word	0x00082091
   81c90:	000820a1 	.word	0x000820a1
   81c94:	200d3f01 	.word	0x200d3f01
   81c98:	400e0600 	.word	0x400e0600
   81c9c:	000820b1 	.word	0x000820b1
   81ca0:	00081fd5 	.word	0x00081fd5
   81ca4:	000821c5 	.word	0x000821c5

00081ca8 <board_init>:
#include "conf_board.h"
#include "gpio.h"
#include "ioport.h"

void board_init(void)
{
   81ca8:	b510      	push	{r4, lr}
#ifndef CONF_BOARD_KEEP_WATCHDOG_AT_INIT
	/* Disable the watchdog */
	WDT->WDT_MR = WDT_MR_WDDIS;
   81caa:	f44f 4200 	mov.w	r2, #32768	; 0x8000
   81cae:	4b17      	ldr	r3, [pc, #92]	; (81d0c <board_init+0x64>)
   81cb0:	605a      	str	r2, [r3, #4]
   81cb2:	200b      	movs	r0, #11
   81cb4:	4c16      	ldr	r4, [pc, #88]	; (81d10 <board_init+0x68>)
   81cb6:	47a0      	blx	r4
   81cb8:	200c      	movs	r0, #12
   81cba:	47a0      	blx	r4
   81cbc:	200d      	movs	r0, #13
   81cbe:	47a0      	blx	r4
   81cc0:	200e      	movs	r0, #14
   81cc2:	47a0      	blx	r4
	 * In new designs IOPORT is used instead.
	 * Here IOPORT must be initialized for others to use before setting up IO.
	 */
	ioport_init();
	/* Configure LED pins */
	gpio_configure_pin(LED0_GPIO, LED0_FLAGS);
   81cc4:	f04f 5160 	mov.w	r1, #939524096	; 0x38000000
   81cc8:	203b      	movs	r0, #59	; 0x3b
   81cca:	4c12      	ldr	r4, [pc, #72]	; (81d14 <board_init+0x6c>)
   81ccc:	47a0      	blx	r4
	gpio_configure_pin(LED1_GPIO, LED1_FLAGS);
   81cce:	f04f 5160 	mov.w	r1, #939524096	; 0x38000000
   81cd2:	2055      	movs	r0, #85	; 0x55
   81cd4:	47a0      	blx	r4
	gpio_configure_pin(LED2_GPIO, LED2_FLAGS);
   81cd6:	f04f 5160 	mov.w	r1, #939524096	; 0x38000000
   81cda:	2056      	movs	r0, #86	; 0x56
   81cdc:	47a0      	blx	r4

	/* Configure Push Button pins */
	gpio_configure_pin(GPIO_PUSH_BUTTON_1, GPIO_PUSH_BUTTON_1_FLAGS);
   81cde:	490e      	ldr	r1, [pc, #56]	; (81d18 <board_init+0x70>)
   81ce0:	2068      	movs	r0, #104	; 0x68
   81ce2:	47a0      	blx	r4
	gpio_configure_pin(GPIO_PUSH_BUTTON_2, GPIO_PUSH_BUTTON_2_FLAGS);
   81ce4:	490d      	ldr	r1, [pc, #52]	; (81d1c <board_init+0x74>)
   81ce6:	205c      	movs	r0, #92	; 0x5c
   81ce8:	47a0      	blx	r4

#ifdef CONF_BOARD_UART_CONSOLE
	/* Configure UART pins */
	gpio_configure_group(PINS_UART_PIO, PINS_UART, PINS_UART_FLAGS);
   81cea:	f04f 6200 	mov.w	r2, #134217728	; 0x8000000
   81cee:	f44f 7140 	mov.w	r1, #768	; 0x300
   81cf2:	480b      	ldr	r0, [pc, #44]	; (81d20 <board_init+0x78>)
   81cf4:	4b0b      	ldr	r3, [pc, #44]	; (81d24 <board_init+0x7c>)
   81cf6:	4798      	blx	r3
	gpio_configure_pin(PIN_USART0_TXD_IDX, PIN_USART0_TXD_FLAGS);
#endif

#ifdef CONF_BOARD_USB_PORT
	/* Configure USB_ID (UOTGID) pin */
	gpio_configure_pin(USB_ID_GPIO, USB_ID_FLAGS);
   81cf8:	f04f 6100 	mov.w	r1, #134217728	; 0x8000000
   81cfc:	202b      	movs	r0, #43	; 0x2b
   81cfe:	47a0      	blx	r4
	/* Configure USB_VBOF (UOTGVBOF) pin */
	gpio_configure_pin(USB_VBOF_GPIO, USB_VBOF_FLAGS);
   81d00:	f04f 6100 	mov.w	r1, #134217728	; 0x8000000
   81d04:	202a      	movs	r0, #42	; 0x2a
   81d06:	47a0      	blx	r4
   81d08:	bd10      	pop	{r4, pc}
   81d0a:	bf00      	nop
   81d0c:	400e1a50 	.word	0x400e1a50
   81d10:	000820c1 	.word	0x000820c1
   81d14:	00081dcd 	.word	0x00081dcd
   81d18:	28000079 	.word	0x28000079
   81d1c:	28000001 	.word	0x28000001
   81d20:	400e0e00 	.word	0x400e0e00
   81d24:	00081ea1 	.word	0x00081ea1

00081d28 <pio_set_peripheral>:
		const uint32_t ul_mask)
{
	uint32_t ul_sr;

	/* Disable interrupts on the pin(s) */
	p_pio->PIO_IDR = ul_mask;
   81d28:	6442      	str	r2, [r0, #68]	; 0x44
	case PIO_OUTPUT_1:
	case PIO_NOT_A_PIN:
		return;
	}
#elif (SAM3XA|| SAM3U)
	switch (ul_type) {
   81d2a:	f1b1 5f80 	cmp.w	r1, #268435456	; 0x10000000
   81d2e:	d016      	beq.n	81d5e <pio_set_peripheral+0x36>
   81d30:	d804      	bhi.n	81d3c <pio_set_peripheral+0x14>
   81d32:	b1c1      	cbz	r1, 81d66 <pio_set_peripheral+0x3e>
   81d34:	f1b1 6f00 	cmp.w	r1, #134217728	; 0x8000000
   81d38:	d00a      	beq.n	81d50 <pio_set_peripheral+0x28>
   81d3a:	e013      	b.n	81d64 <pio_set_peripheral+0x3c>
   81d3c:	f1b1 5f40 	cmp.w	r1, #805306368	; 0x30000000
   81d40:	d011      	beq.n	81d66 <pio_set_peripheral+0x3e>
   81d42:	f1b1 5f60 	cmp.w	r1, #939524096	; 0x38000000
   81d46:	d00e      	beq.n	81d66 <pio_set_peripheral+0x3e>
   81d48:	f1b1 5f20 	cmp.w	r1, #671088640	; 0x28000000
   81d4c:	d10a      	bne.n	81d64 <pio_set_peripheral+0x3c>
   81d4e:	4770      	bx	lr
	case PIO_PERIPH_A:
		ul_sr = p_pio->PIO_ABSR;
   81d50:	6f01      	ldr	r1, [r0, #112]	; 0x70
		p_pio->PIO_ABSR &= (~ul_mask & ul_sr);
   81d52:	6f03      	ldr	r3, [r0, #112]	; 0x70
   81d54:	400b      	ands	r3, r1
   81d56:	ea23 0302 	bic.w	r3, r3, r2
   81d5a:	6703      	str	r3, [r0, #112]	; 0x70
		break;
   81d5c:	e002      	b.n	81d64 <pio_set_peripheral+0x3c>

	case PIO_PERIPH_B:
		ul_sr = p_pio->PIO_ABSR;
   81d5e:	6f03      	ldr	r3, [r0, #112]	; 0x70
		p_pio->PIO_ABSR = (ul_mask | ul_sr);
   81d60:	4313      	orrs	r3, r2
   81d62:	6703      	str	r3, [r0, #112]	; 0x70
#else
#error "Unsupported device"
#endif

	/* Remove the pins from under the control of PIO */
	p_pio->PIO_PDR = ul_mask;
   81d64:	6042      	str	r2, [r0, #4]
   81d66:	4770      	bx	lr

00081d68 <pio_set_input>:
 * \param p_pio Pointer to a PIO instance.
 * \param ul_mask Interrupt sources bit map.
 */
void pio_disable_interrupt(Pio *p_pio, const uint32_t ul_mask)
{
	p_pio->PIO_IDR = ul_mask;
   81d68:	6441      	str	r1, [r0, #68]	; 0x44
 */
void pio_pull_up(Pio *p_pio, const uint32_t ul_mask,
		const uint32_t ul_pull_up_enable)
{
	/* Enable the pull-up(s) if necessary */
	if (ul_pull_up_enable) {
   81d6a:	f012 0f01 	tst.w	r2, #1
		p_pio->PIO_PUER = ul_mask;
   81d6e:	bf14      	ite	ne
   81d70:	6641      	strne	r1, [r0, #100]	; 0x64
	} else {
		p_pio->PIO_PUDR = ul_mask;
   81d72:	6601      	streq	r1, [r0, #96]	; 0x60
{
	pio_disable_interrupt(p_pio, ul_mask);
	pio_pull_up(p_pio, ul_mask, ul_attribute & PIO_PULLUP);

	/* Enable Input Filter if necessary */
	if (ul_attribute & (PIO_DEGLITCH | PIO_DEBOUNCE)) {
   81d74:	f012 0f0a 	tst.w	r2, #10
		p_pio->PIO_IFER = ul_mask;
   81d78:	bf14      	ite	ne
   81d7a:	6201      	strne	r1, [r0, #32]
	} else {
		p_pio->PIO_IFDR = ul_mask;
   81d7c:	6241      	streq	r1, [r0, #36]	; 0x24
			p_pio->PIO_IFSCER = ul_mask;
		}
	}
#elif (SAM3XA|| SAM3U)
	/* Enable de-glitch or de-bounce if necessary */
	if (ul_attribute & PIO_DEGLITCH) {
   81d7e:	f012 0f02 	tst.w	r2, #2
   81d82:	d002      	beq.n	81d8a <pio_set_input+0x22>
		p_pio->PIO_SCIFSR = ul_mask;
   81d84:	f8c0 1080 	str.w	r1, [r0, #128]	; 0x80
   81d88:	e004      	b.n	81d94 <pio_set_input+0x2c>
	} else {
		if (ul_attribute & PIO_DEBOUNCE) {
   81d8a:	f012 0f08 	tst.w	r2, #8
			p_pio->PIO_SCIFSR = ul_mask;
   81d8e:	bf18      	it	ne
   81d90:	f8c0 1080 	strne.w	r1, [r0, #128]	; 0x80
#else
#error "Unsupported device"
#endif

	/* Configure pin as input */
	p_pio->PIO_ODR = ul_mask;
   81d94:	6141      	str	r1, [r0, #20]
	p_pio->PIO_PER = ul_mask;
   81d96:	6001      	str	r1, [r0, #0]
   81d98:	4770      	bx	lr
   81d9a:	bf00      	nop

00081d9c <pio_set_output>:
 */
void pio_set_output(Pio *p_pio, const uint32_t ul_mask,
		const uint32_t ul_default_level,
		const uint32_t ul_multidrive_enable,
		const uint32_t ul_pull_up_enable)
{
   81d9c:	b410      	push	{r4}
 * \param p_pio Pointer to a PIO instance.
 * \param ul_mask Interrupt sources bit map.
 */
void pio_disable_interrupt(Pio *p_pio, const uint32_t ul_mask)
{
	p_pio->PIO_IDR = ul_mask;
   81d9e:	6441      	str	r1, [r0, #68]	; 0x44
 */
void pio_pull_up(Pio *p_pio, const uint32_t ul_mask,
		const uint32_t ul_pull_up_enable)
{
	/* Enable the pull-up(s) if necessary */
	if (ul_pull_up_enable) {
   81da0:	9c01      	ldr	r4, [sp, #4]
   81da2:	b10c      	cbz	r4, 81da8 <pio_set_output+0xc>
		p_pio->PIO_PUER = ul_mask;
   81da4:	6641      	str	r1, [r0, #100]	; 0x64
   81da6:	e000      	b.n	81daa <pio_set_output+0xe>
	} else {
		p_pio->PIO_PUDR = ul_mask;
   81da8:	6601      	str	r1, [r0, #96]	; 0x60
{
	pio_disable_interrupt(p_pio, ul_mask);
	pio_pull_up(p_pio, ul_mask, ul_pull_up_enable);

	/* Enable multi-drive if necessary */
	if (ul_multidrive_enable) {
   81daa:	b10b      	cbz	r3, 81db0 <pio_set_output+0x14>
		p_pio->PIO_MDER = ul_mask;
   81dac:	6501      	str	r1, [r0, #80]	; 0x50
   81dae:	e000      	b.n	81db2 <pio_set_output+0x16>
	} else {
		p_pio->PIO_MDDR = ul_mask;
   81db0:	6541      	str	r1, [r0, #84]	; 0x54
	}

	/* Set default value */
	if (ul_default_level) {
   81db2:	b10a      	cbz	r2, 81db8 <pio_set_output+0x1c>
		p_pio->PIO_SODR = ul_mask;
   81db4:	6301      	str	r1, [r0, #48]	; 0x30
   81db6:	e000      	b.n	81dba <pio_set_output+0x1e>
	} else {
		p_pio->PIO_CODR = ul_mask;
   81db8:	6341      	str	r1, [r0, #52]	; 0x34
	}

	/* Configure pin(s) as output(s) */
	p_pio->PIO_OER = ul_mask;
   81dba:	6101      	str	r1, [r0, #16]
	p_pio->PIO_PER = ul_mask;
   81dbc:	6001      	str	r1, [r0, #0]
}
   81dbe:	bc10      	pop	{r4}
   81dc0:	4770      	bx	lr
   81dc2:	bf00      	nop

00081dc4 <pio_get_interrupt_status>:
 *
 * \return The interrupt status mask value.
 */
uint32_t pio_get_interrupt_status(const Pio *p_pio)
{
	return p_pio->PIO_ISR;
   81dc4:	6cc0      	ldr	r0, [r0, #76]	; 0x4c
}
   81dc6:	4770      	bx	lr

00081dc8 <pio_get_interrupt_mask>:
 *
 * \return The interrupt mask value.
 */
uint32_t pio_get_interrupt_mask(const Pio *p_pio)
{
	return p_pio->PIO_IMR;
   81dc8:	6c80      	ldr	r0, [r0, #72]	; 0x48
}
   81dca:	4770      	bx	lr

00081dcc <pio_configure_pin>:
 * \param ul_flags Pins attributes.
 *
 * \return Whether the pin(s) have been configured properly.
 */
uint32_t pio_configure_pin(uint32_t ul_pin, const uint32_t ul_flags)
{
   81dcc:	b570      	push	{r4, r5, r6, lr}
   81dce:	b082      	sub	sp, #8
   81dd0:	460d      	mov	r5, r1
	Pio *p_pio = (Pio *)((uint32_t)PIOA + (PIO_DELTA * (ul_pin >> 5)));
   81dd2:	0943      	lsrs	r3, r0, #5
   81dd4:	f503 1300 	add.w	r3, r3, #2097152	; 0x200000
   81dd8:	f203 7307 	addw	r3, r3, #1799	; 0x707
   81ddc:	025c      	lsls	r4, r3, #9

	/* Configure pins */
	switch (ul_flags & PIO_TYPE_Msk) {
   81dde:	f001 43f0 	and.w	r3, r1, #2013265920	; 0x78000000
   81de2:	f1b3 5f20 	cmp.w	r3, #671088640	; 0x28000000
   81de6:	d030      	beq.n	81e4a <pio_configure_pin+0x7e>
   81de8:	d806      	bhi.n	81df8 <pio_configure_pin+0x2c>
   81dea:	f1b3 6f00 	cmp.w	r3, #134217728	; 0x8000000
   81dee:	d00a      	beq.n	81e06 <pio_configure_pin+0x3a>
   81df0:	f1b3 5f80 	cmp.w	r3, #268435456	; 0x10000000
   81df4:	d018      	beq.n	81e28 <pio_configure_pin+0x5c>
   81df6:	e049      	b.n	81e8c <pio_configure_pin+0xc0>
   81df8:	f1b3 5f40 	cmp.w	r3, #805306368	; 0x30000000
   81dfc:	d030      	beq.n	81e60 <pio_configure_pin+0x94>
   81dfe:	f1b3 5f60 	cmp.w	r3, #939524096	; 0x38000000
   81e02:	d02d      	beq.n	81e60 <pio_configure_pin+0x94>
   81e04:	e042      	b.n	81e8c <pio_configure_pin+0xc0>
	case PIO_TYPE_PIO_PERIPH_A:
		pio_set_peripheral(p_pio, PIO_PERIPH_A, (1 << (ul_pin & 0x1F)));
   81e06:	f000 001f 	and.w	r0, r0, #31
   81e0a:	2601      	movs	r6, #1
   81e0c:	4086      	lsls	r6, r0
   81e0e:	4632      	mov	r2, r6
   81e10:	f04f 6100 	mov.w	r1, #134217728	; 0x8000000
   81e14:	4620      	mov	r0, r4
   81e16:	4b1f      	ldr	r3, [pc, #124]	; (81e94 <pio_configure_pin+0xc8>)
   81e18:	4798      	blx	r3
 */
void pio_pull_up(Pio *p_pio, const uint32_t ul_mask,
		const uint32_t ul_pull_up_enable)
{
	/* Enable the pull-up(s) if necessary */
	if (ul_pull_up_enable) {
   81e1a:	f015 0f01 	tst.w	r5, #1
		p_pio->PIO_PUER = ul_mask;
   81e1e:	bf14      	ite	ne
   81e20:	6666      	strne	r6, [r4, #100]	; 0x64
	} else {
		p_pio->PIO_PUDR = ul_mask;
   81e22:	6626      	streq	r6, [r4, #96]	; 0x60

	default:
		return 0;
	}

	return 1;
   81e24:	2001      	movs	r0, #1
   81e26:	e032      	b.n	81e8e <pio_configure_pin+0xc2>
		pio_set_peripheral(p_pio, PIO_PERIPH_A, (1 << (ul_pin & 0x1F)));
		pio_pull_up(p_pio, (1 << (ul_pin & 0x1F)),
				(ul_flags & PIO_PULLUP));
		break;
	case PIO_TYPE_PIO_PERIPH_B:
		pio_set_peripheral(p_pio, PIO_PERIPH_B, (1 << (ul_pin & 0x1F)));
   81e28:	f000 001f 	and.w	r0, r0, #31
   81e2c:	2601      	movs	r6, #1
   81e2e:	4086      	lsls	r6, r0
   81e30:	4632      	mov	r2, r6
   81e32:	f04f 5180 	mov.w	r1, #268435456	; 0x10000000
   81e36:	4620      	mov	r0, r4
   81e38:	4b16      	ldr	r3, [pc, #88]	; (81e94 <pio_configure_pin+0xc8>)
   81e3a:	4798      	blx	r3
 */
void pio_pull_up(Pio *p_pio, const uint32_t ul_mask,
		const uint32_t ul_pull_up_enable)
{
	/* Enable the pull-up(s) if necessary */
	if (ul_pull_up_enable) {
   81e3c:	f015 0f01 	tst.w	r5, #1
		p_pio->PIO_PUER = ul_mask;
   81e40:	bf14      	ite	ne
   81e42:	6666      	strne	r6, [r4, #100]	; 0x64
	} else {
		p_pio->PIO_PUDR = ul_mask;
   81e44:	6626      	streq	r6, [r4, #96]	; 0x60

	default:
		return 0;
	}

	return 1;
   81e46:	2001      	movs	r0, #1
   81e48:	e021      	b.n	81e8e <pio_configure_pin+0xc2>
				(ul_flags & PIO_PULLUP));
		break;
#endif

	case PIO_TYPE_PIO_INPUT:
		pio_set_input(p_pio, (1 << (ul_pin & 0x1F)), ul_flags);
   81e4a:	f000 011f 	and.w	r1, r0, #31
   81e4e:	2601      	movs	r6, #1
   81e50:	462a      	mov	r2, r5
   81e52:	fa06 f101 	lsl.w	r1, r6, r1
   81e56:	4620      	mov	r0, r4
   81e58:	4b0f      	ldr	r3, [pc, #60]	; (81e98 <pio_configure_pin+0xcc>)
   81e5a:	4798      	blx	r3

	default:
		return 0;
	}

	return 1;
   81e5c:	4630      	mov	r0, r6
		break;
#endif

	case PIO_TYPE_PIO_INPUT:
		pio_set_input(p_pio, (1 << (ul_pin & 0x1F)), ul_flags);
		break;
   81e5e:	e016      	b.n	81e8e <pio_configure_pin+0xc2>

	case PIO_TYPE_PIO_OUTPUT_0:
	case PIO_TYPE_PIO_OUTPUT_1:
		pio_set_output(p_pio, (1 << (ul_pin & 0x1F)),
   81e60:	f005 5260 	and.w	r2, r5, #939524096	; 0x38000000
   81e64:	f000 011f 	and.w	r1, r0, #31
   81e68:	2601      	movs	r6, #1
   81e6a:	ea05 0306 	and.w	r3, r5, r6
   81e6e:	9300      	str	r3, [sp, #0]
   81e70:	f3c5 0380 	ubfx	r3, r5, #2, #1
   81e74:	f1b2 5f60 	cmp.w	r2, #939524096	; 0x38000000
   81e78:	bf14      	ite	ne
   81e7a:	2200      	movne	r2, #0
   81e7c:	2201      	moveq	r2, #1
   81e7e:	fa06 f101 	lsl.w	r1, r6, r1
   81e82:	4620      	mov	r0, r4
   81e84:	4c05      	ldr	r4, [pc, #20]	; (81e9c <pio_configure_pin+0xd0>)
   81e86:	47a0      	blx	r4

	default:
		return 0;
	}

	return 1;
   81e88:	4630      	mov	r0, r6
		pio_set_output(p_pio, (1 << (ul_pin & 0x1F)),
				((ul_flags & PIO_TYPE_PIO_OUTPUT_1)
				== PIO_TYPE_PIO_OUTPUT_1) ? 1 : 0,
				(ul_flags & PIO_OPENDRAIN) ? 1 : 0,
				(ul_flags & PIO_PULLUP) ? 1 : 0);
		break;
   81e8a:	e000      	b.n	81e8e <pio_configure_pin+0xc2>

	default:
		return 0;
   81e8c:	2000      	movs	r0, #0
	}

	return 1;
}
   81e8e:	b002      	add	sp, #8
   81e90:	bd70      	pop	{r4, r5, r6, pc}
   81e92:	bf00      	nop
   81e94:	00081d29 	.word	0x00081d29
   81e98:	00081d69 	.word	0x00081d69
   81e9c:	00081d9d 	.word	0x00081d9d

00081ea0 <pio_configure_pin_group>:
 *
 * \return Whether the pin(s) have been configured properly.
 */
uint32_t pio_configure_pin_group(Pio *p_pio,
		uint32_t ul_mask, const uint32_t ul_flags)
{
   81ea0:	b570      	push	{r4, r5, r6, lr}
   81ea2:	b082      	sub	sp, #8
   81ea4:	4605      	mov	r5, r0
   81ea6:	460e      	mov	r6, r1
   81ea8:	4614      	mov	r4, r2
	/* Configure pins */
	switch (ul_flags & PIO_TYPE_Msk) {
   81eaa:	f002 43f0 	and.w	r3, r2, #2013265920	; 0x78000000
   81eae:	f1b3 5f20 	cmp.w	r3, #671088640	; 0x28000000
   81eb2:	d026      	beq.n	81f02 <pio_configure_pin_group+0x62>
   81eb4:	d806      	bhi.n	81ec4 <pio_configure_pin_group+0x24>
   81eb6:	f1b3 6f00 	cmp.w	r3, #134217728	; 0x8000000
   81eba:	d00a      	beq.n	81ed2 <pio_configure_pin_group+0x32>
   81ebc:	f1b3 5f80 	cmp.w	r3, #268435456	; 0x10000000
   81ec0:	d013      	beq.n	81eea <pio_configure_pin_group+0x4a>
   81ec2:	e034      	b.n	81f2e <pio_configure_pin_group+0x8e>
   81ec4:	f1b3 5f40 	cmp.w	r3, #805306368	; 0x30000000
   81ec8:	d01f      	beq.n	81f0a <pio_configure_pin_group+0x6a>
   81eca:	f1b3 5f60 	cmp.w	r3, #939524096	; 0x38000000
   81ece:	d01c      	beq.n	81f0a <pio_configure_pin_group+0x6a>
   81ed0:	e02d      	b.n	81f2e <pio_configure_pin_group+0x8e>
	case PIO_TYPE_PIO_PERIPH_A:
		pio_set_peripheral(p_pio, PIO_PERIPH_A, ul_mask);
   81ed2:	460a      	mov	r2, r1
   81ed4:	f04f 6100 	mov.w	r1, #134217728	; 0x8000000
   81ed8:	4b16      	ldr	r3, [pc, #88]	; (81f34 <pio_configure_pin_group+0x94>)
   81eda:	4798      	blx	r3
 */
void pio_pull_up(Pio *p_pio, const uint32_t ul_mask,
		const uint32_t ul_pull_up_enable)
{
	/* Enable the pull-up(s) if necessary */
	if (ul_pull_up_enable) {
   81edc:	f014 0f01 	tst.w	r4, #1
		p_pio->PIO_PUER = ul_mask;
   81ee0:	bf14      	ite	ne
   81ee2:	666e      	strne	r6, [r5, #100]	; 0x64
	} else {
		p_pio->PIO_PUDR = ul_mask;
   81ee4:	662e      	streq	r6, [r5, #96]	; 0x60

	default:
		return 0;
	}

	return 1;
   81ee6:	2001      	movs	r0, #1
   81ee8:	e022      	b.n	81f30 <pio_configure_pin_group+0x90>
	case PIO_TYPE_PIO_PERIPH_A:
		pio_set_peripheral(p_pio, PIO_PERIPH_A, ul_mask);
		pio_pull_up(p_pio, ul_mask, (ul_flags & PIO_PULLUP));
		break;
	case PIO_TYPE_PIO_PERIPH_B:
		pio_set_peripheral(p_pio, PIO_PERIPH_B, ul_mask);
   81eea:	460a      	mov	r2, r1
   81eec:	f04f 5180 	mov.w	r1, #268435456	; 0x10000000
   81ef0:	4b10      	ldr	r3, [pc, #64]	; (81f34 <pio_configure_pin_group+0x94>)
   81ef2:	4798      	blx	r3
 */
void pio_pull_up(Pio *p_pio, const uint32_t ul_mask,
		const uint32_t ul_pull_up_enable)
{
	/* Enable the pull-up(s) if necessary */
	if (ul_pull_up_enable) {
   81ef4:	f014 0f01 	tst.w	r4, #1
		p_pio->PIO_PUER = ul_mask;
   81ef8:	bf14      	ite	ne
   81efa:	666e      	strne	r6, [r5, #100]	; 0x64
	} else {
		p_pio->PIO_PUDR = ul_mask;
   81efc:	662e      	streq	r6, [r5, #96]	; 0x60

	default:
		return 0;
	}

	return 1;
   81efe:	2001      	movs	r0, #1
   81f00:	e016      	b.n	81f30 <pio_configure_pin_group+0x90>
		pio_pull_up(p_pio, ul_mask, (ul_flags & PIO_PULLUP));
		break;
#endif

	case PIO_TYPE_PIO_INPUT:
		pio_set_input(p_pio, ul_mask, ul_flags);
   81f02:	4b0d      	ldr	r3, [pc, #52]	; (81f38 <pio_configure_pin_group+0x98>)
   81f04:	4798      	blx	r3

	default:
		return 0;
	}

	return 1;
   81f06:	2001      	movs	r0, #1
		break;
#endif

	case PIO_TYPE_PIO_INPUT:
		pio_set_input(p_pio, ul_mask, ul_flags);
		break;
   81f08:	e012      	b.n	81f30 <pio_configure_pin_group+0x90>

	case PIO_TYPE_PIO_OUTPUT_0:
	case PIO_TYPE_PIO_OUTPUT_1:
		pio_set_output(p_pio, ul_mask,
   81f0a:	f004 5260 	and.w	r2, r4, #939524096	; 0x38000000
   81f0e:	f004 0301 	and.w	r3, r4, #1
   81f12:	9300      	str	r3, [sp, #0]
   81f14:	f3c4 0380 	ubfx	r3, r4, #2, #1
   81f18:	f1b2 5f60 	cmp.w	r2, #939524096	; 0x38000000
   81f1c:	bf14      	ite	ne
   81f1e:	2200      	movne	r2, #0
   81f20:	2201      	moveq	r2, #1
   81f22:	4631      	mov	r1, r6
   81f24:	4628      	mov	r0, r5
   81f26:	4c05      	ldr	r4, [pc, #20]	; (81f3c <pio_configure_pin_group+0x9c>)
   81f28:	47a0      	blx	r4

	default:
		return 0;
	}

	return 1;
   81f2a:	2001      	movs	r0, #1
		pio_set_output(p_pio, ul_mask,
				((ul_flags & PIO_TYPE_PIO_OUTPUT_1)
				== PIO_TYPE_PIO_OUTPUT_1) ? 1 : 0,
				(ul_flags & PIO_OPENDRAIN) ? 1 : 0,
				(ul_flags & PIO_PULLUP) ? 1 : 0);
		break;
   81f2c:	e000      	b.n	81f30 <pio_configure_pin_group+0x90>

	default:
		return 0;
   81f2e:	2000      	movs	r0, #0
	}

	return 1;
}
   81f30:	b002      	add	sp, #8
   81f32:	bd70      	pop	{r4, r5, r6, pc}
   81f34:	00081d29 	.word	0x00081d29
   81f38:	00081d69 	.word	0x00081d69
   81f3c:	00081d9d 	.word	0x00081d9d

00081f40 <pio_handler_process>:
 *
 * \param p_pio PIO controller base address.
 * \param ul_id PIO controller ID.
 */
void pio_handler_process(Pio *p_pio, uint32_t ul_id)
{
   81f40:	b5f8      	push	{r3, r4, r5, r6, r7, lr}
   81f42:	4604      	mov	r4, r0
   81f44:	460e      	mov	r6, r1
	uint32_t status;
	uint32_t i;

	/* Read PIO controller status */
	status = pio_get_interrupt_status(p_pio);
   81f46:	4b0c      	ldr	r3, [pc, #48]	; (81f78 <pio_handler_process+0x38>)
   81f48:	4798      	blx	r3
   81f4a:	4605      	mov	r5, r0
	status &= pio_get_interrupt_mask(p_pio);
   81f4c:	4620      	mov	r0, r4
   81f4e:	4b0b      	ldr	r3, [pc, #44]	; (81f7c <pio_handler_process+0x3c>)
   81f50:	4798      	blx	r3

	/* Check pending events */
	if (status != 0) {
   81f52:	4005      	ands	r5, r0
   81f54:	d00f      	beq.n	81f76 <pio_handler_process+0x36>
   81f56:	4c0a      	ldr	r4, [pc, #40]	; (81f80 <pio_handler_process+0x40>)
		/* Find triggering source */
		i = 0;
		while (status != 0) {
			/* Source is configured on the same controller */
			if (gs_interrupt_sources[i].id == ul_id) {
   81f58:	6823      	ldr	r3, [r4, #0]
   81f5a:	42b3      	cmp	r3, r6
   81f5c:	d108      	bne.n	81f70 <pio_handler_process+0x30>
				/* Source has PIOs whose statuses have changed */
				if ((status & gs_interrupt_sources[i].mask) != 0) {
   81f5e:	6861      	ldr	r1, [r4, #4]
   81f60:	4229      	tst	r1, r5
   81f62:	d005      	beq.n	81f70 <pio_handler_process+0x30>
					gs_interrupt_sources[i].handler(gs_interrupt_sources[i].id,
   81f64:	68e3      	ldr	r3, [r4, #12]
   81f66:	4630      	mov	r0, r6
   81f68:	4798      	blx	r3
							gs_interrupt_sources[i].mask);
					status &= ~(gs_interrupt_sources[i].mask);
   81f6a:	6863      	ldr	r3, [r4, #4]
   81f6c:	ea25 0503 	bic.w	r5, r5, r3
   81f70:	3410      	adds	r4, #16

	/* Check pending events */
	if (status != 0) {
		/* Find triggering source */
		i = 0;
		while (status != 0) {
   81f72:	2d00      	cmp	r5, #0
   81f74:	d1f0      	bne.n	81f58 <pio_handler_process+0x18>
   81f76:	bdf8      	pop	{r3, r4, r5, r6, r7, pc}
   81f78:	00081dc5 	.word	0x00081dc5
   81f7c:	00081dc9 	.word	0x00081dc9
   81f80:	20070c20 	.word	0x20070c20

00081f84 <PIOA_Handler>:
/**
 * \brief Parallel IO Controller A interrupt handler.
 * Redefined PIOA interrupt handler for NVIC interrupt table.
 */
void PIOA_Handler(void)
{
   81f84:	b508      	push	{r3, lr}
	pio_handler_process(PIOA, ID_PIOA);
   81f86:	210b      	movs	r1, #11
   81f88:	4801      	ldr	r0, [pc, #4]	; (81f90 <PIOA_Handler+0xc>)
   81f8a:	4b02      	ldr	r3, [pc, #8]	; (81f94 <PIOA_Handler+0x10>)
   81f8c:	4798      	blx	r3
   81f8e:	bd08      	pop	{r3, pc}
   81f90:	400e0e00 	.word	0x400e0e00
   81f94:	00081f41 	.word	0x00081f41

00081f98 <PIOB_Handler>:
/**
 * \brief Parallel IO Controller B interrupt handler
 * Redefined PIOB interrupt handler for NVIC interrupt table.
 */
void PIOB_Handler(void)
{
   81f98:	b508      	push	{r3, lr}
    pio_handler_process(PIOB, ID_PIOB);
   81f9a:	210c      	movs	r1, #12
   81f9c:	4801      	ldr	r0, [pc, #4]	; (81fa4 <PIOB_Handler+0xc>)
   81f9e:	4b02      	ldr	r3, [pc, #8]	; (81fa8 <PIOB_Handler+0x10>)
   81fa0:	4798      	blx	r3
   81fa2:	bd08      	pop	{r3, pc}
   81fa4:	400e1000 	.word	0x400e1000
   81fa8:	00081f41 	.word	0x00081f41

00081fac <PIOC_Handler>:
/**
 * \brief Parallel IO Controller C interrupt handler.
 * Redefined PIOC interrupt handler for NVIC interrupt table.
 */
void PIOC_Handler(void)
{
   81fac:	b508      	push	{r3, lr}
	pio_handler_process(PIOC, ID_PIOC);
   81fae:	210d      	movs	r1, #13
   81fb0:	4801      	ldr	r0, [pc, #4]	; (81fb8 <PIOC_Handler+0xc>)
   81fb2:	4b02      	ldr	r3, [pc, #8]	; (81fbc <PIOC_Handler+0x10>)
   81fb4:	4798      	blx	r3
   81fb6:	bd08      	pop	{r3, pc}
   81fb8:	400e1200 	.word	0x400e1200
   81fbc:	00081f41 	.word	0x00081f41

00081fc0 <PIOD_Handler>:
/**
 * \brief Parallel IO Controller D interrupt handler.
 * Redefined PIOD interrupt handler for NVIC interrupt table.
 */
void PIOD_Handler(void)
{
   81fc0:	b508      	push	{r3, lr}
	pio_handler_process(PIOD, ID_PIOD);
   81fc2:	210e      	movs	r1, #14
   81fc4:	4801      	ldr	r0, [pc, #4]	; (81fcc <PIOD_Handler+0xc>)
   81fc6:	4b02      	ldr	r3, [pc, #8]	; (81fd0 <PIOD_Handler+0x10>)
   81fc8:	4798      	blx	r3
   81fca:	bd08      	pop	{r3, pc}
   81fcc:	400e1400 	.word	0x400e1400
   81fd0:	00081f41 	.word	0x00081f41

00081fd4 <pmc_switch_mck_to_pllack>:
 */
uint32_t pmc_switch_mck_to_pllack(uint32_t ul_pres)
{
	uint32_t ul_timeout;

	PMC->PMC_MCKR = (PMC->PMC_MCKR & (~PMC_MCKR_PRES_Msk)) | ul_pres;
   81fd4:	4a18      	ldr	r2, [pc, #96]	; (82038 <pmc_switch_mck_to_pllack+0x64>)
   81fd6:	6b13      	ldr	r3, [r2, #48]	; 0x30
   81fd8:	f023 0370 	bic.w	r3, r3, #112	; 0x70
   81fdc:	4318      	orrs	r0, r3
   81fde:	6310      	str	r0, [r2, #48]	; 0x30
	for (ul_timeout = PMC_TIMEOUT; !(PMC->PMC_SR & PMC_SR_MCKRDY);
   81fe0:	6e93      	ldr	r3, [r2, #104]	; 0x68
   81fe2:	f013 0f08 	tst.w	r3, #8
   81fe6:	d003      	beq.n	81ff0 <pmc_switch_mck_to_pllack+0x1c>
   81fe8:	e009      	b.n	81ffe <pmc_switch_mck_to_pllack+0x2a>
			--ul_timeout) {
		if (ul_timeout == 0) {
   81fea:	3b01      	subs	r3, #1
   81fec:	d103      	bne.n	81ff6 <pmc_switch_mck_to_pllack+0x22>
   81fee:	e01e      	b.n	8202e <pmc_switch_mck_to_pllack+0x5a>
uint32_t pmc_switch_mck_to_pllack(uint32_t ul_pres)
{
	uint32_t ul_timeout;

	PMC->PMC_MCKR = (PMC->PMC_MCKR & (~PMC_MCKR_PRES_Msk)) | ul_pres;
	for (ul_timeout = PMC_TIMEOUT; !(PMC->PMC_SR & PMC_SR_MCKRDY);
   81ff0:	f44f 6300 	mov.w	r3, #2048	; 0x800
   81ff4:	4910      	ldr	r1, [pc, #64]	; (82038 <pmc_switch_mck_to_pllack+0x64>)
   81ff6:	6e8a      	ldr	r2, [r1, #104]	; 0x68
   81ff8:	f012 0f08 	tst.w	r2, #8
   81ffc:	d0f5      	beq.n	81fea <pmc_switch_mck_to_pllack+0x16>
		if (ul_timeout == 0) {
			return 1;
		}
	}

	PMC->PMC_MCKR = (PMC->PMC_MCKR & (~PMC_MCKR_CSS_Msk)) |
   81ffe:	4a0e      	ldr	r2, [pc, #56]	; (82038 <pmc_switch_mck_to_pllack+0x64>)
   82000:	6b13      	ldr	r3, [r2, #48]	; 0x30
   82002:	f023 0303 	bic.w	r3, r3, #3
   82006:	f043 0302 	orr.w	r3, r3, #2
   8200a:	6313      	str	r3, [r2, #48]	; 0x30
			PMC_MCKR_CSS_PLLA_CLK;

	for (ul_timeout = PMC_TIMEOUT; !(PMC->PMC_SR & PMC_SR_MCKRDY);
   8200c:	6e90      	ldr	r0, [r2, #104]	; 0x68
   8200e:	f010 0008 	ands.w	r0, r0, #8
   82012:	d004      	beq.n	8201e <pmc_switch_mck_to_pllack+0x4a>
		if (ul_timeout == 0) {
			return 1;
		}
	}

	return 0;
   82014:	2000      	movs	r0, #0
   82016:	4770      	bx	lr
	PMC->PMC_MCKR = (PMC->PMC_MCKR & (~PMC_MCKR_CSS_Msk)) |
			PMC_MCKR_CSS_PLLA_CLK;

	for (ul_timeout = PMC_TIMEOUT; !(PMC->PMC_SR & PMC_SR_MCKRDY);
			--ul_timeout) {
		if (ul_timeout == 0) {
   82018:	3b01      	subs	r3, #1
   8201a:	d103      	bne.n	82024 <pmc_switch_mck_to_pllack+0x50>
   8201c:	e009      	b.n	82032 <pmc_switch_mck_to_pllack+0x5e>
	}

	PMC->PMC_MCKR = (PMC->PMC_MCKR & (~PMC_MCKR_CSS_Msk)) |
			PMC_MCKR_CSS_PLLA_CLK;

	for (ul_timeout = PMC_TIMEOUT; !(PMC->PMC_SR & PMC_SR_MCKRDY);
   8201e:	f44f 6300 	mov.w	r3, #2048	; 0x800
   82022:	4905      	ldr	r1, [pc, #20]	; (82038 <pmc_switch_mck_to_pllack+0x64>)
   82024:	6e8a      	ldr	r2, [r1, #104]	; 0x68
   82026:	f012 0f08 	tst.w	r2, #8
   8202a:	d0f5      	beq.n	82018 <pmc_switch_mck_to_pllack+0x44>
   8202c:	4770      	bx	lr

	PMC->PMC_MCKR = (PMC->PMC_MCKR & (~PMC_MCKR_PRES_Msk)) | ul_pres;
	for (ul_timeout = PMC_TIMEOUT; !(PMC->PMC_SR & PMC_SR_MCKRDY);
			--ul_timeout) {
		if (ul_timeout == 0) {
			return 1;
   8202e:	2001      	movs	r0, #1
   82030:	4770      	bx	lr
			PMC_MCKR_CSS_PLLA_CLK;

	for (ul_timeout = PMC_TIMEOUT; !(PMC->PMC_SR & PMC_SR_MCKRDY);
			--ul_timeout) {
		if (ul_timeout == 0) {
			return 1;
   82032:	2001      	movs	r0, #1
		}
	}

	return 0;
}
   82034:	4770      	bx	lr
   82036:	bf00      	nop
   82038:	400e0600 	.word	0x400e0600

0008203c <pmc_switch_mainck_to_xtal>:
 */
void pmc_switch_mainck_to_xtal(uint32_t ul_bypass,
		uint32_t ul_xtal_startup_time)
{
	/* Enable Main Xtal oscillator */
	if (ul_bypass) {
   8203c:	b138      	cbz	r0, 8204e <pmc_switch_mainck_to_xtal+0x12>
		PMC->CKGR_MOR = (PMC->CKGR_MOR & ~CKGR_MOR_MOSCXTEN) |
   8203e:	4911      	ldr	r1, [pc, #68]	; (82084 <pmc_switch_mainck_to_xtal+0x48>)
   82040:	6a0b      	ldr	r3, [r1, #32]
				PMC_CKGR_MOR_KEY_VALUE | CKGR_MOR_MOSCXTBY |
   82042:	4a11      	ldr	r2, [pc, #68]	; (82088 <pmc_switch_mainck_to_xtal+0x4c>)
   82044:	401a      	ands	r2, r3
   82046:	4b11      	ldr	r3, [pc, #68]	; (8208c <pmc_switch_mainck_to_xtal+0x50>)
   82048:	4313      	orrs	r3, r2
void pmc_switch_mainck_to_xtal(uint32_t ul_bypass,
		uint32_t ul_xtal_startup_time)
{
	/* Enable Main Xtal oscillator */
	if (ul_bypass) {
		PMC->CKGR_MOR = (PMC->CKGR_MOR & ~CKGR_MOR_MOSCXTEN) |
   8204a:	620b      	str	r3, [r1, #32]
   8204c:	4770      	bx	lr
				PMC_CKGR_MOR_KEY_VALUE | CKGR_MOR_MOSCXTBY |
				CKGR_MOR_MOSCSEL;
	} else {
		PMC->CKGR_MOR = (PMC->CKGR_MOR & ~CKGR_MOR_MOSCXTBY) |
   8204e:	480d      	ldr	r0, [pc, #52]	; (82084 <pmc_switch_mainck_to_xtal+0x48>)
   82050:	6a02      	ldr	r2, [r0, #32]
				PMC_CKGR_MOR_KEY_VALUE | CKGR_MOR_MOSCXTEN |
   82052:	0209      	lsls	r1, r1, #8
   82054:	b289      	uxth	r1, r1
   82056:	f422 135c 	bic.w	r3, r2, #3604480	; 0x370000
   8205a:	f023 0303 	bic.w	r3, r3, #3
   8205e:	f443 135c 	orr.w	r3, r3, #3604480	; 0x370000
   82062:	f043 0301 	orr.w	r3, r3, #1
   82066:	430b      	orrs	r3, r1
	if (ul_bypass) {
		PMC->CKGR_MOR = (PMC->CKGR_MOR & ~CKGR_MOR_MOSCXTEN) |
				PMC_CKGR_MOR_KEY_VALUE | CKGR_MOR_MOSCXTBY |
				CKGR_MOR_MOSCSEL;
	} else {
		PMC->CKGR_MOR = (PMC->CKGR_MOR & ~CKGR_MOR_MOSCXTBY) |
   82068:	6203      	str	r3, [r0, #32]
				PMC_CKGR_MOR_KEY_VALUE | CKGR_MOR_MOSCXTEN |
				CKGR_MOR_MOSCXTST(ul_xtal_startup_time);
		/* Wait the Xtal to stabilize */
		while (!(PMC->PMC_SR & PMC_SR_MOSCXTS));
   8206a:	4602      	mov	r2, r0
   8206c:	6e93      	ldr	r3, [r2, #104]	; 0x68
   8206e:	f013 0f01 	tst.w	r3, #1
   82072:	d0fb      	beq.n	8206c <pmc_switch_mainck_to_xtal+0x30>

		PMC->CKGR_MOR |= PMC_CKGR_MOR_KEY_VALUE | CKGR_MOR_MOSCSEL;
   82074:	4a03      	ldr	r2, [pc, #12]	; (82084 <pmc_switch_mainck_to_xtal+0x48>)
   82076:	6a13      	ldr	r3, [r2, #32]
   82078:	f043 739b 	orr.w	r3, r3, #20316160	; 0x1360000
   8207c:	f443 3380 	orr.w	r3, r3, #65536	; 0x10000
   82080:	6213      	str	r3, [r2, #32]
   82082:	4770      	bx	lr
   82084:	400e0600 	.word	0x400e0600
   82088:	fec8fffc 	.word	0xfec8fffc
   8208c:	01370002 	.word	0x01370002

00082090 <pmc_osc_is_ready_mainck>:
 * \retval 1 Xtal is ready.
 * \retval 0 Xtal is not ready.
 */
uint32_t pmc_osc_is_ready_mainck(void)
{
	return PMC->PMC_SR & PMC_SR_MOSCSELS;
   82090:	4b02      	ldr	r3, [pc, #8]	; (8209c <pmc_osc_is_ready_mainck+0xc>)
   82092:	6e98      	ldr	r0, [r3, #104]	; 0x68
}
   82094:	f400 3080 	and.w	r0, r0, #65536	; 0x10000
   82098:	4770      	bx	lr
   8209a:	bf00      	nop
   8209c:	400e0600 	.word	0x400e0600

000820a0 <pmc_disable_pllack>:
/**
 * \brief Disable PLLA clock.
 */
void pmc_disable_pllack(void)
{
	PMC->CKGR_PLLAR = CKGR_PLLAR_ONE | CKGR_PLLAR_MULA(0);
   820a0:	f04f 5200 	mov.w	r2, #536870912	; 0x20000000
   820a4:	4b01      	ldr	r3, [pc, #4]	; (820ac <pmc_disable_pllack+0xc>)
   820a6:	629a      	str	r2, [r3, #40]	; 0x28
   820a8:	4770      	bx	lr
   820aa:	bf00      	nop
   820ac:	400e0600 	.word	0x400e0600

000820b0 <pmc_is_locked_pllack>:
 * \retval 0 Not locked.
 * \retval 1 Locked.
 */
uint32_t pmc_is_locked_pllack(void)
{
	return (PMC->PMC_SR & PMC_SR_LOCKA);
   820b0:	4b02      	ldr	r3, [pc, #8]	; (820bc <pmc_is_locked_pllack+0xc>)
   820b2:	6e98      	ldr	r0, [r3, #104]	; 0x68
}
   820b4:	f000 0002 	and.w	r0, r0, #2
   820b8:	4770      	bx	lr
   820ba:	bf00      	nop
   820bc:	400e0600 	.word	0x400e0600

000820c0 <pmc_enable_periph_clk>:
 * \retval 0 Success.
 * \retval 1 Invalid parameter.
 */
uint32_t pmc_enable_periph_clk(uint32_t ul_id)
{
	if (ul_id > MAX_PERIPH_ID) {
   820c0:	282c      	cmp	r0, #44	; 0x2c
   820c2:	d81e      	bhi.n	82102 <pmc_enable_periph_clk+0x42>
		return 1;
	}

	if (ul_id < 32) {
   820c4:	281f      	cmp	r0, #31
   820c6:	d80c      	bhi.n	820e2 <pmc_enable_periph_clk+0x22>
		if ((PMC->PMC_PCSR0 & (1u << ul_id)) != (1u << ul_id)) {
   820c8:	4b11      	ldr	r3, [pc, #68]	; (82110 <pmc_enable_periph_clk+0x50>)
   820ca:	699a      	ldr	r2, [r3, #24]
   820cc:	2301      	movs	r3, #1
   820ce:	4083      	lsls	r3, r0
   820d0:	4393      	bics	r3, r2
   820d2:	d018      	beq.n	82106 <pmc_enable_periph_clk+0x46>
			PMC->PMC_PCER0 = 1 << ul_id;
   820d4:	2301      	movs	r3, #1
   820d6:	fa03 f000 	lsl.w	r0, r3, r0
   820da:	4b0d      	ldr	r3, [pc, #52]	; (82110 <pmc_enable_periph_clk+0x50>)
   820dc:	6118      	str	r0, [r3, #16]
			PMC->PMC_PCER1 = 1 << ul_id;
		}
#endif
	}

	return 0;
   820de:	2000      	movs	r0, #0
   820e0:	4770      	bx	lr
		if ((PMC->PMC_PCSR0 & (1u << ul_id)) != (1u << ul_id)) {
			PMC->PMC_PCER0 = 1 << ul_id;
		}
#if (SAM3S || SAM3XA || SAM4S || SAM4E)
	} else {
		ul_id -= 32;
   820e2:	3820      	subs	r0, #32
		if ((PMC->PMC_PCSR1 & (1u << ul_id)) != (1u << ul_id)) {
   820e4:	4b0a      	ldr	r3, [pc, #40]	; (82110 <pmc_enable_periph_clk+0x50>)
   820e6:	f8d3 2108 	ldr.w	r2, [r3, #264]	; 0x108
   820ea:	2301      	movs	r3, #1
   820ec:	4083      	lsls	r3, r0
   820ee:	4393      	bics	r3, r2
   820f0:	d00b      	beq.n	8210a <pmc_enable_periph_clk+0x4a>
			PMC->PMC_PCER1 = 1 << ul_id;
   820f2:	2301      	movs	r3, #1
   820f4:	fa03 f000 	lsl.w	r0, r3, r0
   820f8:	4b05      	ldr	r3, [pc, #20]	; (82110 <pmc_enable_periph_clk+0x50>)
   820fa:	f8c3 0100 	str.w	r0, [r3, #256]	; 0x100
		}
#endif
	}

	return 0;
   820fe:	2000      	movs	r0, #0
   82100:	4770      	bx	lr
 * \retval 1 Invalid parameter.
 */
uint32_t pmc_enable_periph_clk(uint32_t ul_id)
{
	if (ul_id > MAX_PERIPH_ID) {
		return 1;
   82102:	2001      	movs	r0, #1
   82104:	4770      	bx	lr
			PMC->PMC_PCER1 = 1 << ul_id;
		}
#endif
	}

	return 0;
   82106:	2000      	movs	r0, #0
   82108:	4770      	bx	lr
   8210a:	2000      	movs	r0, #0
}
   8210c:	4770      	bx	lr
   8210e:	bf00      	nop
   82110:	400e0600 	.word	0x400e0600

00082114 <Dummy_Handler>:

/**
 * \brief Default interrupt handler for unused IRQs.
 */
void Dummy_Handler(void)
{
   82114:	e7fe      	b.n	82114 <Dummy_Handler>
   82116:	bf00      	nop

00082118 <Reset_Handler>:
/**
 * \brief This is the code that gets called on processor reset.
 * To initialize the device, and call the main() routine.
 */
void Reset_Handler(void)
{
   82118:	b508      	push	{r3, lr}

	/* Initialize the relocate segment */
	pSrc = &_etext;
	pDest = &_srelocate;

	if (pSrc != pDest) {
   8211a:	4b1e      	ldr	r3, [pc, #120]	; (82194 <Reset_Handler+0x7c>)
   8211c:	4a1e      	ldr	r2, [pc, #120]	; (82198 <Reset_Handler+0x80>)
   8211e:	429a      	cmp	r2, r3
   82120:	d003      	beq.n	8212a <Reset_Handler+0x12>
		for (; pDest < &_erelocate;) {
   82122:	4b1e      	ldr	r3, [pc, #120]	; (8219c <Reset_Handler+0x84>)
   82124:	4a1b      	ldr	r2, [pc, #108]	; (82194 <Reset_Handler+0x7c>)
   82126:	429a      	cmp	r2, r3
   82128:	d304      	bcc.n	82134 <Reset_Handler+0x1c>
			*pDest++ = *pSrc++;
		}
	}

	/* Clear the zero segment */
	for (pDest = &_szero; pDest < &_ezero;) {
   8212a:	4b1d      	ldr	r3, [pc, #116]	; (821a0 <Reset_Handler+0x88>)
   8212c:	4a1d      	ldr	r2, [pc, #116]	; (821a4 <Reset_Handler+0x8c>)
   8212e:	429a      	cmp	r2, r3
   82130:	d30f      	bcc.n	82152 <Reset_Handler+0x3a>
   82132:	e01a      	b.n	8216a <Reset_Handler+0x52>
   82134:	4917      	ldr	r1, [pc, #92]	; (82194 <Reset_Handler+0x7c>)
   82136:	4b1c      	ldr	r3, [pc, #112]	; (821a8 <Reset_Handler+0x90>)
   82138:	1a5b      	subs	r3, r3, r1
   8213a:	f023 0303 	bic.w	r3, r3, #3
   8213e:	3304      	adds	r3, #4
   82140:	4a15      	ldr	r2, [pc, #84]	; (82198 <Reset_Handler+0x80>)
   82142:	4413      	add	r3, r2
	pSrc = &_etext;
	pDest = &_srelocate;

	if (pSrc != pDest) {
		for (; pDest < &_erelocate;) {
			*pDest++ = *pSrc++;
   82144:	f852 0b04 	ldr.w	r0, [r2], #4
   82148:	f841 0b04 	str.w	r0, [r1], #4
	/* Initialize the relocate segment */
	pSrc = &_etext;
	pDest = &_srelocate;

	if (pSrc != pDest) {
		for (; pDest < &_erelocate;) {
   8214c:	429a      	cmp	r2, r3
   8214e:	d1f9      	bne.n	82144 <Reset_Handler+0x2c>
   82150:	e7eb      	b.n	8212a <Reset_Handler+0x12>
   82152:	4b16      	ldr	r3, [pc, #88]	; (821ac <Reset_Handler+0x94>)
   82154:	4a16      	ldr	r2, [pc, #88]	; (821b0 <Reset_Handler+0x98>)
   82156:	1ad2      	subs	r2, r2, r3
   82158:	f022 0203 	bic.w	r2, r2, #3
   8215c:	441a      	add	r2, r3
			*pDest++ = *pSrc++;
		}
	}

	/* Clear the zero segment */
	for (pDest = &_szero; pDest < &_ezero;) {
   8215e:	3b04      	subs	r3, #4
		*pDest++ = 0;
   82160:	2100      	movs	r1, #0
   82162:	f843 1b04 	str.w	r1, [r3], #4
			*pDest++ = *pSrc++;
		}
	}

	/* Clear the zero segment */
	for (pDest = &_szero; pDest < &_ezero;) {
   82166:	4293      	cmp	r3, r2
   82168:	d1fb      	bne.n	82162 <Reset_Handler+0x4a>
		*pDest++ = 0;
	}

	/* Set the vector table base address */
	pSrc = (uint32_t *) & _sfixed;
	SCB->VTOR = ((uint32_t) pSrc & SCB_VTOR_TBLOFF_Msk);
   8216a:	4b12      	ldr	r3, [pc, #72]	; (821b4 <Reset_Handler+0x9c>)
   8216c:	f023 4260 	bic.w	r2, r3, #3758096384	; 0xe0000000
   82170:	f022 027f 	bic.w	r2, r2, #127	; 0x7f
   82174:	4910      	ldr	r1, [pc, #64]	; (821b8 <Reset_Handler+0xa0>)
   82176:	608a      	str	r2, [r1, #8]

	if (((uint32_t) pSrc >= IRAM0_ADDR) && ((uint32_t) pSrc < NFC_RAM_ADDR)) {
   82178:	f103 4360 	add.w	r3, r3, #3758096384	; 0xe0000000
   8217c:	f5b3 1f80 	cmp.w	r3, #1048576	; 0x100000
   82180:	d203      	bcs.n	8218a <Reset_Handler+0x72>
		SCB->VTOR |= 1 << SCB_VTOR_TBLBASE_Pos;
   82182:	688b      	ldr	r3, [r1, #8]
   82184:	f043 5300 	orr.w	r3, r3, #536870912	; 0x20000000
   82188:	608b      	str	r3, [r1, #8]
	}

	/* Initialize the C library */
	__libc_init_array();
   8218a:	4b0c      	ldr	r3, [pc, #48]	; (821bc <Reset_Handler+0xa4>)
   8218c:	4798      	blx	r3

	/* Branch to main function */
	main();
   8218e:	4b0c      	ldr	r3, [pc, #48]	; (821c0 <Reset_Handler+0xa8>)
   82190:	4798      	blx	r3
   82192:	e7fe      	b.n	82192 <Reset_Handler+0x7a>
   82194:	20070000 	.word	0x20070000
   82198:	00083edc 	.word	0x00083edc
   8219c:	20070844 	.word	0x20070844
   821a0:	20070ce0 	.word	0x20070ce0
   821a4:	20070844 	.word	0x20070844
   821a8:	20070843 	.word	0x20070843
   821ac:	20070848 	.word	0x20070848
   821b0:	20070ce3 	.word	0x20070ce3
   821b4:	00080000 	.word	0x00080000
   821b8:	e000ed00 	.word	0xe000ed00
   821bc:	00082e3d 	.word	0x00082e3d
   821c0:	00081b11 	.word	0x00081b11

000821c4 <SystemCoreClockUpdate>:
}

void SystemCoreClockUpdate(void)
{
	/* Determine clock frequency according to clock register values */
	switch (PMC->PMC_MCKR & PMC_MCKR_CSS_Msk) {
   821c4:	4b3e      	ldr	r3, [pc, #248]	; (822c0 <SystemCoreClockUpdate+0xfc>)
   821c6:	6b1b      	ldr	r3, [r3, #48]	; 0x30
   821c8:	f003 0303 	and.w	r3, r3, #3
   821cc:	2b03      	cmp	r3, #3
   821ce:	d85f      	bhi.n	82290 <SystemCoreClockUpdate+0xcc>
   821d0:	e8df f003 	tbb	[pc, r3]
   821d4:	2b2b0e02 	.word	0x2b2b0e02
	case PMC_MCKR_CSS_SLOW_CLK:	/* Slow clock */
		if (SUPC->SUPC_SR & SUPC_SR_OSCSEL) {
   821d8:	4b3a      	ldr	r3, [pc, #232]	; (822c4 <SystemCoreClockUpdate+0x100>)
   821da:	695b      	ldr	r3, [r3, #20]
   821dc:	f013 0f80 	tst.w	r3, #128	; 0x80
			SystemCoreClock = CHIP_FREQ_XTAL_32K;
   821e0:	bf14      	ite	ne
   821e2:	f44f 4200 	movne.w	r2, #32768	; 0x8000
		} else {
			SystemCoreClock = CHIP_FREQ_SLCK_RC;
   821e6:	f44f 42fa 	moveq.w	r2, #32000	; 0x7d00
   821ea:	4b37      	ldr	r3, [pc, #220]	; (822c8 <SystemCoreClockUpdate+0x104>)
   821ec:	601a      	str	r2, [r3, #0]
   821ee:	e04f      	b.n	82290 <SystemCoreClockUpdate+0xcc>
		}
		break;
	case PMC_MCKR_CSS_MAIN_CLK:	/* Main clock */
		if (PMC->CKGR_MOR & CKGR_MOR_MOSCSEL) {
   821f0:	4b33      	ldr	r3, [pc, #204]	; (822c0 <SystemCoreClockUpdate+0xfc>)
   821f2:	6a1b      	ldr	r3, [r3, #32]
   821f4:	f013 7f80 	tst.w	r3, #16777216	; 0x1000000
   821f8:	d003      	beq.n	82202 <SystemCoreClockUpdate+0x3e>
			SystemCoreClock = CHIP_FREQ_XTAL_12M;
   821fa:	4a34      	ldr	r2, [pc, #208]	; (822cc <SystemCoreClockUpdate+0x108>)
   821fc:	4b32      	ldr	r3, [pc, #200]	; (822c8 <SystemCoreClockUpdate+0x104>)
   821fe:	601a      	str	r2, [r3, #0]
   82200:	e046      	b.n	82290 <SystemCoreClockUpdate+0xcc>
		} else {
			SystemCoreClock = CHIP_FREQ_MAINCK_RC_4MHZ;
   82202:	4a33      	ldr	r2, [pc, #204]	; (822d0 <SystemCoreClockUpdate+0x10c>)
   82204:	4b30      	ldr	r3, [pc, #192]	; (822c8 <SystemCoreClockUpdate+0x104>)
   82206:	601a      	str	r2, [r3, #0]

			switch (PMC->CKGR_MOR & CKGR_MOR_MOSCRCF_Msk) {
   82208:	4b2d      	ldr	r3, [pc, #180]	; (822c0 <SystemCoreClockUpdate+0xfc>)
   8220a:	6a1b      	ldr	r3, [r3, #32]
   8220c:	f003 0370 	and.w	r3, r3, #112	; 0x70
   82210:	2b10      	cmp	r3, #16
   82212:	d002      	beq.n	8221a <SystemCoreClockUpdate+0x56>
   82214:	2b20      	cmp	r3, #32
   82216:	d004      	beq.n	82222 <SystemCoreClockUpdate+0x5e>
   82218:	e03a      	b.n	82290 <SystemCoreClockUpdate+0xcc>
			case CKGR_MOR_MOSCRCF_4_MHz:
				break;
			case CKGR_MOR_MOSCRCF_8_MHz:
				SystemCoreClock *= 2U;
   8221a:	4a2e      	ldr	r2, [pc, #184]	; (822d4 <SystemCoreClockUpdate+0x110>)
   8221c:	4b2a      	ldr	r3, [pc, #168]	; (822c8 <SystemCoreClockUpdate+0x104>)
   8221e:	601a      	str	r2, [r3, #0]
				break;
   82220:	e036      	b.n	82290 <SystemCoreClockUpdate+0xcc>
			case CKGR_MOR_MOSCRCF_12_MHz:
				SystemCoreClock *= 3U;
   82222:	4a2a      	ldr	r2, [pc, #168]	; (822cc <SystemCoreClockUpdate+0x108>)
   82224:	4b28      	ldr	r3, [pc, #160]	; (822c8 <SystemCoreClockUpdate+0x104>)
   82226:	601a      	str	r2, [r3, #0]
				break;
   82228:	e032      	b.n	82290 <SystemCoreClockUpdate+0xcc>
			}
		}
		break;
	case PMC_MCKR_CSS_PLLA_CLK:	/* PLLA clock */
	case PMC_MCKR_CSS_UPLL_CLK:	/* UPLL clock */
		if (PMC->CKGR_MOR & CKGR_MOR_MOSCSEL) {
   8222a:	4b25      	ldr	r3, [pc, #148]	; (822c0 <SystemCoreClockUpdate+0xfc>)
   8222c:	6a1b      	ldr	r3, [r3, #32]
   8222e:	f013 7f80 	tst.w	r3, #16777216	; 0x1000000
   82232:	d003      	beq.n	8223c <SystemCoreClockUpdate+0x78>
			SystemCoreClock = CHIP_FREQ_XTAL_12M;
   82234:	4a25      	ldr	r2, [pc, #148]	; (822cc <SystemCoreClockUpdate+0x108>)
   82236:	4b24      	ldr	r3, [pc, #144]	; (822c8 <SystemCoreClockUpdate+0x104>)
   82238:	601a      	str	r2, [r3, #0]
   8223a:	e012      	b.n	82262 <SystemCoreClockUpdate+0x9e>
		} else {
			SystemCoreClock = CHIP_FREQ_MAINCK_RC_4MHZ;
   8223c:	4a24      	ldr	r2, [pc, #144]	; (822d0 <SystemCoreClockUpdate+0x10c>)
   8223e:	4b22      	ldr	r3, [pc, #136]	; (822c8 <SystemCoreClockUpdate+0x104>)
   82240:	601a      	str	r2, [r3, #0]

			switch (PMC->CKGR_MOR & CKGR_MOR_MOSCRCF_Msk) {
   82242:	4b1f      	ldr	r3, [pc, #124]	; (822c0 <SystemCoreClockUpdate+0xfc>)
   82244:	6a1b      	ldr	r3, [r3, #32]
   82246:	f003 0370 	and.w	r3, r3, #112	; 0x70
   8224a:	2b10      	cmp	r3, #16
   8224c:	d002      	beq.n	82254 <SystemCoreClockUpdate+0x90>
   8224e:	2b20      	cmp	r3, #32
   82250:	d004      	beq.n	8225c <SystemCoreClockUpdate+0x98>
   82252:	e006      	b.n	82262 <SystemCoreClockUpdate+0x9e>
			case CKGR_MOR_MOSCRCF_4_MHz:
				break;
			case CKGR_MOR_MOSCRCF_8_MHz:
				SystemCoreClock *= 2U;
   82254:	4a1f      	ldr	r2, [pc, #124]	; (822d4 <SystemCoreClockUpdate+0x110>)
   82256:	4b1c      	ldr	r3, [pc, #112]	; (822c8 <SystemCoreClockUpdate+0x104>)
   82258:	601a      	str	r2, [r3, #0]
				break;
   8225a:	e002      	b.n	82262 <SystemCoreClockUpdate+0x9e>
			case CKGR_MOR_MOSCRCF_12_MHz:
				SystemCoreClock *= 3U;
   8225c:	4a1b      	ldr	r2, [pc, #108]	; (822cc <SystemCoreClockUpdate+0x108>)
   8225e:	4b1a      	ldr	r3, [pc, #104]	; (822c8 <SystemCoreClockUpdate+0x104>)
   82260:	601a      	str	r2, [r3, #0]
				break;
			default:
				break;
			}
		}
		if ((PMC->PMC_MCKR & PMC_MCKR_CSS_Msk) == PMC_MCKR_CSS_PLLA_CLK) {
   82262:	4b17      	ldr	r3, [pc, #92]	; (822c0 <SystemCoreClockUpdate+0xfc>)
   82264:	6b1b      	ldr	r3, [r3, #48]	; 0x30
   82266:	f003 0303 	and.w	r3, r3, #3
   8226a:	2b02      	cmp	r3, #2
   8226c:	d10d      	bne.n	8228a <SystemCoreClockUpdate+0xc6>
			SystemCoreClock *= ((((PMC->CKGR_PLLAR) & CKGR_PLLAR_MULA_Msk) >> 
   8226e:	4a14      	ldr	r2, [pc, #80]	; (822c0 <SystemCoreClockUpdate+0xfc>)
   82270:	6a93      	ldr	r3, [r2, #40]	; 0x28
				                            CKGR_PLLAR_MULA_Pos) + 1U);
			SystemCoreClock /= ((((PMC->CKGR_PLLAR) & CKGR_PLLAR_DIVA_Msk) >> 
   82272:	6a92      	ldr	r2, [r2, #40]	; 0x28
   82274:	4814      	ldr	r0, [pc, #80]	; (822c8 <SystemCoreClockUpdate+0x104>)
   82276:	f3c3 410a 	ubfx	r1, r3, #16, #11
   8227a:	6803      	ldr	r3, [r0, #0]
   8227c:	fb01 3303 	mla	r3, r1, r3, r3
   82280:	b2d2      	uxtb	r2, r2
   82282:	fbb3 f3f2 	udiv	r3, r3, r2
   82286:	6003      	str	r3, [r0, #0]
   82288:	e002      	b.n	82290 <SystemCoreClockUpdate+0xcc>
				                             CKGR_PLLAR_DIVA_Pos));
		} else {
			SystemCoreClock = SYS_UTMIPLL / 2U;
   8228a:	4a13      	ldr	r2, [pc, #76]	; (822d8 <SystemCoreClockUpdate+0x114>)
   8228c:	4b0e      	ldr	r3, [pc, #56]	; (822c8 <SystemCoreClockUpdate+0x104>)
   8228e:	601a      	str	r2, [r3, #0]
		}
		break;
	}

	if ((PMC->PMC_MCKR & PMC_MCKR_PRES_Msk) == PMC_MCKR_PRES_CLK_3) {
   82290:	4b0b      	ldr	r3, [pc, #44]	; (822c0 <SystemCoreClockUpdate+0xfc>)
   82292:	6b1b      	ldr	r3, [r3, #48]	; 0x30
   82294:	f003 0370 	and.w	r3, r3, #112	; 0x70
   82298:	2b70      	cmp	r3, #112	; 0x70
   8229a:	d107      	bne.n	822ac <SystemCoreClockUpdate+0xe8>
		SystemCoreClock /= 3U;
   8229c:	4a0a      	ldr	r2, [pc, #40]	; (822c8 <SystemCoreClockUpdate+0x104>)
   8229e:	6813      	ldr	r3, [r2, #0]
   822a0:	490e      	ldr	r1, [pc, #56]	; (822dc <SystemCoreClockUpdate+0x118>)
   822a2:	fba1 1303 	umull	r1, r3, r1, r3
   822a6:	085b      	lsrs	r3, r3, #1
   822a8:	6013      	str	r3, [r2, #0]
   822aa:	4770      	bx	lr
	} else {
		SystemCoreClock >>= ((PMC->PMC_MCKR & PMC_MCKR_PRES_Msk) >> 
   822ac:	4b04      	ldr	r3, [pc, #16]	; (822c0 <SystemCoreClockUpdate+0xfc>)
   822ae:	6b1b      	ldr	r3, [r3, #48]	; 0x30
   822b0:	4905      	ldr	r1, [pc, #20]	; (822c8 <SystemCoreClockUpdate+0x104>)
   822b2:	f3c3 1202 	ubfx	r2, r3, #4, #3
   822b6:	680b      	ldr	r3, [r1, #0]
   822b8:	40d3      	lsrs	r3, r2
   822ba:	600b      	str	r3, [r1, #0]
   822bc:	4770      	bx	lr
   822be:	bf00      	nop
   822c0:	400e0600 	.word	0x400e0600
   822c4:	400e1a10 	.word	0x400e1a10
   822c8:	20070000 	.word	0x20070000
   822cc:	00b71b00 	.word	0x00b71b00
   822d0:	003d0900 	.word	0x003d0900
   822d4:	007a1200 	.word	0x007a1200
   822d8:	0e4e1c00 	.word	0x0e4e1c00
   822dc:	aaaaaaab 	.word	0xaaaaaaab

000822e0 <system_init_flash>:
 * Initialize flash.
 */
void system_init_flash(uint32_t ul_clk)
{
	/* Set FWS for embedded Flash access according to operating frequency */
	if (ul_clk < CHIP_FREQ_FWS_0) {
   822e0:	4b1b      	ldr	r3, [pc, #108]	; (82350 <system_init_flash+0x70>)
   822e2:	4298      	cmp	r0, r3
   822e4:	d806      	bhi.n	822f4 <system_init_flash+0x14>
		EFC0->EEFC_FMR = EEFC_FMR_FWS(0);
   822e6:	2300      	movs	r3, #0
   822e8:	4a1a      	ldr	r2, [pc, #104]	; (82354 <system_init_flash+0x74>)
   822ea:	6013      	str	r3, [r2, #0]
		EFC1->EEFC_FMR = EEFC_FMR_FWS(0);
   822ec:	f502 7200 	add.w	r2, r2, #512	; 0x200
   822f0:	6013      	str	r3, [r2, #0]
   822f2:	4770      	bx	lr
	} else if (ul_clk < CHIP_FREQ_FWS_1) {
   822f4:	4b18      	ldr	r3, [pc, #96]	; (82358 <system_init_flash+0x78>)
   822f6:	4298      	cmp	r0, r3
   822f8:	d807      	bhi.n	8230a <system_init_flash+0x2a>
		EFC0->EEFC_FMR = EEFC_FMR_FWS(1);
   822fa:	f44f 7380 	mov.w	r3, #256	; 0x100
   822fe:	4a15      	ldr	r2, [pc, #84]	; (82354 <system_init_flash+0x74>)
   82300:	6013      	str	r3, [r2, #0]
		EFC1->EEFC_FMR = EEFC_FMR_FWS(1);
   82302:	f502 7200 	add.w	r2, r2, #512	; 0x200
   82306:	6013      	str	r3, [r2, #0]
   82308:	4770      	bx	lr
	} else if (ul_clk < CHIP_FREQ_FWS_2) {
   8230a:	4b14      	ldr	r3, [pc, #80]	; (8235c <system_init_flash+0x7c>)
   8230c:	4298      	cmp	r0, r3
   8230e:	d807      	bhi.n	82320 <system_init_flash+0x40>
		EFC0->EEFC_FMR = EEFC_FMR_FWS(2);
   82310:	f44f 7300 	mov.w	r3, #512	; 0x200
   82314:	4a0f      	ldr	r2, [pc, #60]	; (82354 <system_init_flash+0x74>)
   82316:	6013      	str	r3, [r2, #0]
		EFC1->EEFC_FMR = EEFC_FMR_FWS(2);
   82318:	f502 7200 	add.w	r2, r2, #512	; 0x200
   8231c:	6013      	str	r3, [r2, #0]
   8231e:	4770      	bx	lr
	} else if (ul_clk < CHIP_FREQ_FWS_3) {
   82320:	4b0f      	ldr	r3, [pc, #60]	; (82360 <system_init_flash+0x80>)
   82322:	4298      	cmp	r0, r3
   82324:	d807      	bhi.n	82336 <system_init_flash+0x56>
		EFC0->EEFC_FMR = EEFC_FMR_FWS(3);
   82326:	f44f 7340 	mov.w	r3, #768	; 0x300
   8232a:	4a0a      	ldr	r2, [pc, #40]	; (82354 <system_init_flash+0x74>)
   8232c:	6013      	str	r3, [r2, #0]
		EFC1->EEFC_FMR = EEFC_FMR_FWS(3);
   8232e:	f502 7200 	add.w	r2, r2, #512	; 0x200
   82332:	6013      	str	r3, [r2, #0]
   82334:	4770      	bx	lr
	} else if (ul_clk < CHIP_FREQ_FWS_4) {
   82336:	4b0b      	ldr	r3, [pc, #44]	; (82364 <system_init_flash+0x84>)
   82338:	4298      	cmp	r0, r3
		EFC0->EEFC_FMR = EEFC_FMR_FWS(4);
   8233a:	bf94      	ite	ls
   8233c:	f44f 6380 	movls.w	r3, #1024	; 0x400
		EFC1->EEFC_FMR = EEFC_FMR_FWS(4);	
	} else {
		EFC0->EEFC_FMR = EEFC_FMR_FWS(5);
   82340:	f44f 63a0 	movhi.w	r3, #1280	; 0x500
   82344:	4a03      	ldr	r2, [pc, #12]	; (82354 <system_init_flash+0x74>)
   82346:	6013      	str	r3, [r2, #0]
		EFC1->EEFC_FMR = EEFC_FMR_FWS(5);
   82348:	f502 7200 	add.w	r2, r2, #512	; 0x200
   8234c:	6013      	str	r3, [r2, #0]
   8234e:	4770      	bx	lr
   82350:	0121eabf 	.word	0x0121eabf
   82354:	400e0a00 	.word	0x400e0a00
   82358:	02faf07f 	.word	0x02faf07f
   8235c:	03d08fff 	.word	0x03d08fff
   82360:	04c4b3ff 	.word	0x04c4b3ff
   82364:	055d4a7f 	.word	0x055d4a7f

00082368 <_sbrk>:
extern void _exit(int status);
extern void _kill(int pid, int sig);
extern int _getpid(void);

extern caddr_t _sbrk(int incr)
{
   82368:	4603      	mov	r3, r0
	static unsigned char *heap = NULL;
	unsigned char *prev_heap;

	if (heap == NULL) {
   8236a:	4a05      	ldr	r2, [pc, #20]	; (82380 <_sbrk+0x18>)
   8236c:	6812      	ldr	r2, [r2, #0]
   8236e:	b912      	cbnz	r2, 82376 <_sbrk+0xe>
		heap = (unsigned char *)&_end;
   82370:	4904      	ldr	r1, [pc, #16]	; (82384 <_sbrk+0x1c>)
   82372:	4a03      	ldr	r2, [pc, #12]	; (82380 <_sbrk+0x18>)
   82374:	6011      	str	r1, [r2, #0]
	}
	prev_heap = heap;
   82376:	4a02      	ldr	r2, [pc, #8]	; (82380 <_sbrk+0x18>)
   82378:	6810      	ldr	r0, [r2, #0]

	heap += incr;
   8237a:	4403      	add	r3, r0
   8237c:	6013      	str	r3, [r2, #0]

	return (caddr_t) prev_heap;
}
   8237e:	4770      	bx	lr
   82380:	20070c90 	.word	0x20070c90
   82384:	20072ce0 	.word	0x20072ce0

00082388 <_close>:
}

extern int _close(int file)
{
	return -1;
}
   82388:	f04f 30ff 	mov.w	r0, #4294967295
   8238c:	4770      	bx	lr
   8238e:	bf00      	nop

00082390 <_fstat>:

extern int _fstat(int file, struct stat *st)
{
	st->st_mode = S_IFCHR;
   82390:	f44f 5300 	mov.w	r3, #8192	; 0x2000
   82394:	604b      	str	r3, [r1, #4]

	return 0;
}
   82396:	2000      	movs	r0, #0
   82398:	4770      	bx	lr
   8239a:	bf00      	nop

0008239c <_lseek>:
}

extern int _lseek(int file, int ptr, int dir)
{
	return 0;
}
   8239c:	2000      	movs	r0, #0
   8239e:	4770      	bx	lr

000823a0 <__aeabi_drsub>:
   823a0:	f081 4100 	eor.w	r1, r1, #2147483648	; 0x80000000
   823a4:	e002      	b.n	823ac <__adddf3>
   823a6:	bf00      	nop

000823a8 <__aeabi_dsub>:
   823a8:	f083 4300 	eor.w	r3, r3, #2147483648	; 0x80000000

000823ac <__adddf3>:
   823ac:	b530      	push	{r4, r5, lr}
   823ae:	ea4f 0441 	mov.w	r4, r1, lsl #1
   823b2:	ea4f 0543 	mov.w	r5, r3, lsl #1
   823b6:	ea94 0f05 	teq	r4, r5
   823ba:	bf08      	it	eq
   823bc:	ea90 0f02 	teqeq	r0, r2
   823c0:	bf1f      	itttt	ne
   823c2:	ea54 0c00 	orrsne.w	ip, r4, r0
   823c6:	ea55 0c02 	orrsne.w	ip, r5, r2
   823ca:	ea7f 5c64 	mvnsne.w	ip, r4, asr #21
   823ce:	ea7f 5c65 	mvnsne.w	ip, r5, asr #21
   823d2:	f000 80e2 	beq.w	8259a <__adddf3+0x1ee>
   823d6:	ea4f 5454 	mov.w	r4, r4, lsr #21
   823da:	ebd4 5555 	rsbs	r5, r4, r5, lsr #21
   823de:	bfb8      	it	lt
   823e0:	426d      	neglt	r5, r5
   823e2:	dd0c      	ble.n	823fe <__adddf3+0x52>
   823e4:	442c      	add	r4, r5
   823e6:	ea80 0202 	eor.w	r2, r0, r2
   823ea:	ea81 0303 	eor.w	r3, r1, r3
   823ee:	ea82 0000 	eor.w	r0, r2, r0
   823f2:	ea83 0101 	eor.w	r1, r3, r1
   823f6:	ea80 0202 	eor.w	r2, r0, r2
   823fa:	ea81 0303 	eor.w	r3, r1, r3
   823fe:	2d36      	cmp	r5, #54	; 0x36
   82400:	bf88      	it	hi
   82402:	bd30      	pophi	{r4, r5, pc}
   82404:	f011 4f00 	tst.w	r1, #2147483648	; 0x80000000
   82408:	ea4f 3101 	mov.w	r1, r1, lsl #12
   8240c:	f44f 1c80 	mov.w	ip, #1048576	; 0x100000
   82410:	ea4c 3111 	orr.w	r1, ip, r1, lsr #12
   82414:	d002      	beq.n	8241c <__adddf3+0x70>
   82416:	4240      	negs	r0, r0
   82418:	eb61 0141 	sbc.w	r1, r1, r1, lsl #1
   8241c:	f013 4f00 	tst.w	r3, #2147483648	; 0x80000000
   82420:	ea4f 3303 	mov.w	r3, r3, lsl #12
   82424:	ea4c 3313 	orr.w	r3, ip, r3, lsr #12
   82428:	d002      	beq.n	82430 <__adddf3+0x84>
   8242a:	4252      	negs	r2, r2
   8242c:	eb63 0343 	sbc.w	r3, r3, r3, lsl #1
   82430:	ea94 0f05 	teq	r4, r5
   82434:	f000 80a7 	beq.w	82586 <__adddf3+0x1da>
   82438:	f1a4 0401 	sub.w	r4, r4, #1
   8243c:	f1d5 0e20 	rsbs	lr, r5, #32
   82440:	db0d      	blt.n	8245e <__adddf3+0xb2>
   82442:	fa02 fc0e 	lsl.w	ip, r2, lr
   82446:	fa22 f205 	lsr.w	r2, r2, r5
   8244a:	1880      	adds	r0, r0, r2
   8244c:	f141 0100 	adc.w	r1, r1, #0
   82450:	fa03 f20e 	lsl.w	r2, r3, lr
   82454:	1880      	adds	r0, r0, r2
   82456:	fa43 f305 	asr.w	r3, r3, r5
   8245a:	4159      	adcs	r1, r3
   8245c:	e00e      	b.n	8247c <__adddf3+0xd0>
   8245e:	f1a5 0520 	sub.w	r5, r5, #32
   82462:	f10e 0e20 	add.w	lr, lr, #32
   82466:	2a01      	cmp	r2, #1
   82468:	fa03 fc0e 	lsl.w	ip, r3, lr
   8246c:	bf28      	it	cs
   8246e:	f04c 0c02 	orrcs.w	ip, ip, #2
   82472:	fa43 f305 	asr.w	r3, r3, r5
   82476:	18c0      	adds	r0, r0, r3
   82478:	eb51 71e3 	adcs.w	r1, r1, r3, asr #31
   8247c:	f001 4500 	and.w	r5, r1, #2147483648	; 0x80000000
   82480:	d507      	bpl.n	82492 <__adddf3+0xe6>
   82482:	f04f 0e00 	mov.w	lr, #0
   82486:	f1dc 0c00 	rsbs	ip, ip, #0
   8248a:	eb7e 0000 	sbcs.w	r0, lr, r0
   8248e:	eb6e 0101 	sbc.w	r1, lr, r1
   82492:	f5b1 1f80 	cmp.w	r1, #1048576	; 0x100000
   82496:	d31b      	bcc.n	824d0 <__adddf3+0x124>
   82498:	f5b1 1f00 	cmp.w	r1, #2097152	; 0x200000
   8249c:	d30c      	bcc.n	824b8 <__adddf3+0x10c>
   8249e:	0849      	lsrs	r1, r1, #1
   824a0:	ea5f 0030 	movs.w	r0, r0, rrx
   824a4:	ea4f 0c3c 	mov.w	ip, ip, rrx
   824a8:	f104 0401 	add.w	r4, r4, #1
   824ac:	ea4f 5244 	mov.w	r2, r4, lsl #21
   824b0:	f512 0f80 	cmn.w	r2, #4194304	; 0x400000
   824b4:	f080 809a 	bcs.w	825ec <__adddf3+0x240>
   824b8:	f1bc 4f00 	cmp.w	ip, #2147483648	; 0x80000000
   824bc:	bf08      	it	eq
   824be:	ea5f 0c50 	movseq.w	ip, r0, lsr #1
   824c2:	f150 0000 	adcs.w	r0, r0, #0
   824c6:	eb41 5104 	adc.w	r1, r1, r4, lsl #20
   824ca:	ea41 0105 	orr.w	r1, r1, r5
   824ce:	bd30      	pop	{r4, r5, pc}
   824d0:	ea5f 0c4c 	movs.w	ip, ip, lsl #1
   824d4:	4140      	adcs	r0, r0
   824d6:	eb41 0101 	adc.w	r1, r1, r1
   824da:	f411 1f80 	tst.w	r1, #1048576	; 0x100000
   824de:	f1a4 0401 	sub.w	r4, r4, #1
   824e2:	d1e9      	bne.n	824b8 <__adddf3+0x10c>
   824e4:	f091 0f00 	teq	r1, #0
   824e8:	bf04      	itt	eq
   824ea:	4601      	moveq	r1, r0
   824ec:	2000      	moveq	r0, #0
   824ee:	fab1 f381 	clz	r3, r1
   824f2:	bf08      	it	eq
   824f4:	3320      	addeq	r3, #32
   824f6:	f1a3 030b 	sub.w	r3, r3, #11
   824fa:	f1b3 0220 	subs.w	r2, r3, #32
   824fe:	da0c      	bge.n	8251a <__adddf3+0x16e>
   82500:	320c      	adds	r2, #12
   82502:	dd08      	ble.n	82516 <__adddf3+0x16a>
   82504:	f102 0c14 	add.w	ip, r2, #20
   82508:	f1c2 020c 	rsb	r2, r2, #12
   8250c:	fa01 f00c 	lsl.w	r0, r1, ip
   82510:	fa21 f102 	lsr.w	r1, r1, r2
   82514:	e00c      	b.n	82530 <__adddf3+0x184>
   82516:	f102 0214 	add.w	r2, r2, #20
   8251a:	bfd8      	it	le
   8251c:	f1c2 0c20 	rsble	ip, r2, #32
   82520:	fa01 f102 	lsl.w	r1, r1, r2
   82524:	fa20 fc0c 	lsr.w	ip, r0, ip
   82528:	bfdc      	itt	le
   8252a:	ea41 010c 	orrle.w	r1, r1, ip
   8252e:	4090      	lslle	r0, r2
   82530:	1ae4      	subs	r4, r4, r3
   82532:	bfa2      	ittt	ge
   82534:	eb01 5104 	addge.w	r1, r1, r4, lsl #20
   82538:	4329      	orrge	r1, r5
   8253a:	bd30      	popge	{r4, r5, pc}
   8253c:	ea6f 0404 	mvn.w	r4, r4
   82540:	3c1f      	subs	r4, #31
   82542:	da1c      	bge.n	8257e <__adddf3+0x1d2>
   82544:	340c      	adds	r4, #12
   82546:	dc0e      	bgt.n	82566 <__adddf3+0x1ba>
   82548:	f104 0414 	add.w	r4, r4, #20
   8254c:	f1c4 0220 	rsb	r2, r4, #32
   82550:	fa20 f004 	lsr.w	r0, r0, r4
   82554:	fa01 f302 	lsl.w	r3, r1, r2
   82558:	ea40 0003 	orr.w	r0, r0, r3
   8255c:	fa21 f304 	lsr.w	r3, r1, r4
   82560:	ea45 0103 	orr.w	r1, r5, r3
   82564:	bd30      	pop	{r4, r5, pc}
   82566:	f1c4 040c 	rsb	r4, r4, #12
   8256a:	f1c4 0220 	rsb	r2, r4, #32
   8256e:	fa20 f002 	lsr.w	r0, r0, r2
   82572:	fa01 f304 	lsl.w	r3, r1, r4
   82576:	ea40 0003 	orr.w	r0, r0, r3
   8257a:	4629      	mov	r1, r5
   8257c:	bd30      	pop	{r4, r5, pc}
   8257e:	fa21 f004 	lsr.w	r0, r1, r4
   82582:	4629      	mov	r1, r5
   82584:	bd30      	pop	{r4, r5, pc}
   82586:	f094 0f00 	teq	r4, #0
   8258a:	f483 1380 	eor.w	r3, r3, #1048576	; 0x100000
   8258e:	bf06      	itte	eq
   82590:	f481 1180 	eoreq.w	r1, r1, #1048576	; 0x100000
   82594:	3401      	addeq	r4, #1
   82596:	3d01      	subne	r5, #1
   82598:	e74e      	b.n	82438 <__adddf3+0x8c>
   8259a:	ea7f 5c64 	mvns.w	ip, r4, asr #21
   8259e:	bf18      	it	ne
   825a0:	ea7f 5c65 	mvnsne.w	ip, r5, asr #21
   825a4:	d029      	beq.n	825fa <__adddf3+0x24e>
   825a6:	ea94 0f05 	teq	r4, r5
   825aa:	bf08      	it	eq
   825ac:	ea90 0f02 	teqeq	r0, r2
   825b0:	d005      	beq.n	825be <__adddf3+0x212>
   825b2:	ea54 0c00 	orrs.w	ip, r4, r0
   825b6:	bf04      	itt	eq
   825b8:	4619      	moveq	r1, r3
   825ba:	4610      	moveq	r0, r2
   825bc:	bd30      	pop	{r4, r5, pc}
   825be:	ea91 0f03 	teq	r1, r3
   825c2:	bf1e      	ittt	ne
   825c4:	2100      	movne	r1, #0
   825c6:	2000      	movne	r0, #0
   825c8:	bd30      	popne	{r4, r5, pc}
   825ca:	ea5f 5c54 	movs.w	ip, r4, lsr #21
   825ce:	d105      	bne.n	825dc <__adddf3+0x230>
   825d0:	0040      	lsls	r0, r0, #1
   825d2:	4149      	adcs	r1, r1
   825d4:	bf28      	it	cs
   825d6:	f041 4100 	orrcs.w	r1, r1, #2147483648	; 0x80000000
   825da:	bd30      	pop	{r4, r5, pc}
   825dc:	f514 0480 	adds.w	r4, r4, #4194304	; 0x400000
   825e0:	bf3c      	itt	cc
   825e2:	f501 1180 	addcc.w	r1, r1, #1048576	; 0x100000
   825e6:	bd30      	popcc	{r4, r5, pc}
   825e8:	f001 4500 	and.w	r5, r1, #2147483648	; 0x80000000
   825ec:	f045 41fe 	orr.w	r1, r5, #2130706432	; 0x7f000000
   825f0:	f441 0170 	orr.w	r1, r1, #15728640	; 0xf00000
   825f4:	f04f 0000 	mov.w	r0, #0
   825f8:	bd30      	pop	{r4, r5, pc}
   825fa:	ea7f 5c64 	mvns.w	ip, r4, asr #21
   825fe:	bf1a      	itte	ne
   82600:	4619      	movne	r1, r3
   82602:	4610      	movne	r0, r2
   82604:	ea7f 5c65 	mvnseq.w	ip, r5, asr #21
   82608:	bf1c      	itt	ne
   8260a:	460b      	movne	r3, r1
   8260c:	4602      	movne	r2, r0
   8260e:	ea50 3401 	orrs.w	r4, r0, r1, lsl #12
   82612:	bf06      	itte	eq
   82614:	ea52 3503 	orrseq.w	r5, r2, r3, lsl #12
   82618:	ea91 0f03 	teqeq	r1, r3
   8261c:	f441 2100 	orrne.w	r1, r1, #524288	; 0x80000
   82620:	bd30      	pop	{r4, r5, pc}
   82622:	bf00      	nop

00082624 <__aeabi_ui2d>:
   82624:	f090 0f00 	teq	r0, #0
   82628:	bf04      	itt	eq
   8262a:	2100      	moveq	r1, #0
   8262c:	4770      	bxeq	lr
   8262e:	b530      	push	{r4, r5, lr}
   82630:	f44f 6480 	mov.w	r4, #1024	; 0x400
   82634:	f104 0432 	add.w	r4, r4, #50	; 0x32
   82638:	f04f 0500 	mov.w	r5, #0
   8263c:	f04f 0100 	mov.w	r1, #0
   82640:	e750      	b.n	824e4 <__adddf3+0x138>
   82642:	bf00      	nop

00082644 <__aeabi_i2d>:
   82644:	f090 0f00 	teq	r0, #0
   82648:	bf04      	itt	eq
   8264a:	2100      	moveq	r1, #0
   8264c:	4770      	bxeq	lr
   8264e:	b530      	push	{r4, r5, lr}
   82650:	f44f 6480 	mov.w	r4, #1024	; 0x400
   82654:	f104 0432 	add.w	r4, r4, #50	; 0x32
   82658:	f010 4500 	ands.w	r5, r0, #2147483648	; 0x80000000
   8265c:	bf48      	it	mi
   8265e:	4240      	negmi	r0, r0
   82660:	f04f 0100 	mov.w	r1, #0
   82664:	e73e      	b.n	824e4 <__adddf3+0x138>
   82666:	bf00      	nop

00082668 <__aeabi_f2d>:
   82668:	0042      	lsls	r2, r0, #1
   8266a:	ea4f 01e2 	mov.w	r1, r2, asr #3
   8266e:	ea4f 0131 	mov.w	r1, r1, rrx
   82672:	ea4f 7002 	mov.w	r0, r2, lsl #28
   82676:	bf1f      	itttt	ne
   82678:	f012 437f 	andsne.w	r3, r2, #4278190080	; 0xff000000
   8267c:	f093 4f7f 	teqne	r3, #4278190080	; 0xff000000
   82680:	f081 5160 	eorne.w	r1, r1, #939524096	; 0x38000000
   82684:	4770      	bxne	lr
   82686:	f092 0f00 	teq	r2, #0
   8268a:	bf14      	ite	ne
   8268c:	f093 4f7f 	teqne	r3, #4278190080	; 0xff000000
   82690:	4770      	bxeq	lr
   82692:	b530      	push	{r4, r5, lr}
   82694:	f44f 7460 	mov.w	r4, #896	; 0x380
   82698:	f001 4500 	and.w	r5, r1, #2147483648	; 0x80000000
   8269c:	f021 4100 	bic.w	r1, r1, #2147483648	; 0x80000000
   826a0:	e720      	b.n	824e4 <__adddf3+0x138>
   826a2:	bf00      	nop

000826a4 <__aeabi_ul2d>:
   826a4:	ea50 0201 	orrs.w	r2, r0, r1
   826a8:	bf08      	it	eq
   826aa:	4770      	bxeq	lr
   826ac:	b530      	push	{r4, r5, lr}
   826ae:	f04f 0500 	mov.w	r5, #0
   826b2:	e00a      	b.n	826ca <__aeabi_l2d+0x16>

000826b4 <__aeabi_l2d>:
   826b4:	ea50 0201 	orrs.w	r2, r0, r1
   826b8:	bf08      	it	eq
   826ba:	4770      	bxeq	lr
   826bc:	b530      	push	{r4, r5, lr}
   826be:	f011 4500 	ands.w	r5, r1, #2147483648	; 0x80000000
   826c2:	d502      	bpl.n	826ca <__aeabi_l2d+0x16>
   826c4:	4240      	negs	r0, r0
   826c6:	eb61 0141 	sbc.w	r1, r1, r1, lsl #1
   826ca:	f44f 6480 	mov.w	r4, #1024	; 0x400
   826ce:	f104 0432 	add.w	r4, r4, #50	; 0x32
   826d2:	ea5f 5c91 	movs.w	ip, r1, lsr #22
   826d6:	f43f aedc 	beq.w	82492 <__adddf3+0xe6>
   826da:	f04f 0203 	mov.w	r2, #3
   826de:	ea5f 0cdc 	movs.w	ip, ip, lsr #3
   826e2:	bf18      	it	ne
   826e4:	3203      	addne	r2, #3
   826e6:	ea5f 0cdc 	movs.w	ip, ip, lsr #3
   826ea:	bf18      	it	ne
   826ec:	3203      	addne	r2, #3
   826ee:	eb02 02dc 	add.w	r2, r2, ip, lsr #3
   826f2:	f1c2 0320 	rsb	r3, r2, #32
   826f6:	fa00 fc03 	lsl.w	ip, r0, r3
   826fa:	fa20 f002 	lsr.w	r0, r0, r2
   826fe:	fa01 fe03 	lsl.w	lr, r1, r3
   82702:	ea40 000e 	orr.w	r0, r0, lr
   82706:	fa21 f102 	lsr.w	r1, r1, r2
   8270a:	4414      	add	r4, r2
   8270c:	e6c1      	b.n	82492 <__adddf3+0xe6>
   8270e:	bf00      	nop

00082710 <__aeabi_dmul>:
   82710:	b570      	push	{r4, r5, r6, lr}
   82712:	f04f 0cff 	mov.w	ip, #255	; 0xff
   82716:	f44c 6ce0 	orr.w	ip, ip, #1792	; 0x700
   8271a:	ea1c 5411 	ands.w	r4, ip, r1, lsr #20
   8271e:	bf1d      	ittte	ne
   82720:	ea1c 5513 	andsne.w	r5, ip, r3, lsr #20
   82724:	ea94 0f0c 	teqne	r4, ip
   82728:	ea95 0f0c 	teqne	r5, ip
   8272c:	f000 f8de 	bleq	828ec <__aeabi_dmul+0x1dc>
   82730:	442c      	add	r4, r5
   82732:	ea81 0603 	eor.w	r6, r1, r3
   82736:	ea21 514c 	bic.w	r1, r1, ip, lsl #21
   8273a:	ea23 534c 	bic.w	r3, r3, ip, lsl #21
   8273e:	ea50 3501 	orrs.w	r5, r0, r1, lsl #12
   82742:	bf18      	it	ne
   82744:	ea52 3503 	orrsne.w	r5, r2, r3, lsl #12
   82748:	f441 1180 	orr.w	r1, r1, #1048576	; 0x100000
   8274c:	f443 1380 	orr.w	r3, r3, #1048576	; 0x100000
   82750:	d038      	beq.n	827c4 <__aeabi_dmul+0xb4>
   82752:	fba0 ce02 	umull	ip, lr, r0, r2
   82756:	f04f 0500 	mov.w	r5, #0
   8275a:	fbe1 e502 	umlal	lr, r5, r1, r2
   8275e:	f006 4200 	and.w	r2, r6, #2147483648	; 0x80000000
   82762:	fbe0 e503 	umlal	lr, r5, r0, r3
   82766:	f04f 0600 	mov.w	r6, #0
   8276a:	fbe1 5603 	umlal	r5, r6, r1, r3
   8276e:	f09c 0f00 	teq	ip, #0
   82772:	bf18      	it	ne
   82774:	f04e 0e01 	orrne.w	lr, lr, #1
   82778:	f1a4 04ff 	sub.w	r4, r4, #255	; 0xff
   8277c:	f5b6 7f00 	cmp.w	r6, #512	; 0x200
   82780:	f564 7440 	sbc.w	r4, r4, #768	; 0x300
   82784:	d204      	bcs.n	82790 <__aeabi_dmul+0x80>
   82786:	ea5f 0e4e 	movs.w	lr, lr, lsl #1
   8278a:	416d      	adcs	r5, r5
   8278c:	eb46 0606 	adc.w	r6, r6, r6
   82790:	ea42 21c6 	orr.w	r1, r2, r6, lsl #11
   82794:	ea41 5155 	orr.w	r1, r1, r5, lsr #21
   82798:	ea4f 20c5 	mov.w	r0, r5, lsl #11
   8279c:	ea40 505e 	orr.w	r0, r0, lr, lsr #21
   827a0:	ea4f 2ece 	mov.w	lr, lr, lsl #11
   827a4:	f1b4 0cfd 	subs.w	ip, r4, #253	; 0xfd
   827a8:	bf88      	it	hi
   827aa:	f5bc 6fe0 	cmphi.w	ip, #1792	; 0x700
   827ae:	d81e      	bhi.n	827ee <__aeabi_dmul+0xde>
   827b0:	f1be 4f00 	cmp.w	lr, #2147483648	; 0x80000000
   827b4:	bf08      	it	eq
   827b6:	ea5f 0e50 	movseq.w	lr, r0, lsr #1
   827ba:	f150 0000 	adcs.w	r0, r0, #0
   827be:	eb41 5104 	adc.w	r1, r1, r4, lsl #20
   827c2:	bd70      	pop	{r4, r5, r6, pc}
   827c4:	f006 4600 	and.w	r6, r6, #2147483648	; 0x80000000
   827c8:	ea46 0101 	orr.w	r1, r6, r1
   827cc:	ea40 0002 	orr.w	r0, r0, r2
   827d0:	ea81 0103 	eor.w	r1, r1, r3
   827d4:	ebb4 045c 	subs.w	r4, r4, ip, lsr #1
   827d8:	bfc2      	ittt	gt
   827da:	ebd4 050c 	rsbsgt	r5, r4, ip
   827de:	ea41 5104 	orrgt.w	r1, r1, r4, lsl #20
   827e2:	bd70      	popgt	{r4, r5, r6, pc}
   827e4:	f441 1180 	orr.w	r1, r1, #1048576	; 0x100000
   827e8:	f04f 0e00 	mov.w	lr, #0
   827ec:	3c01      	subs	r4, #1
   827ee:	f300 80ab 	bgt.w	82948 <__aeabi_dmul+0x238>
   827f2:	f114 0f36 	cmn.w	r4, #54	; 0x36
   827f6:	bfde      	ittt	le
   827f8:	2000      	movle	r0, #0
   827fa:	f001 4100 	andle.w	r1, r1, #2147483648	; 0x80000000
   827fe:	bd70      	pople	{r4, r5, r6, pc}
   82800:	f1c4 0400 	rsb	r4, r4, #0
   82804:	3c20      	subs	r4, #32
   82806:	da35      	bge.n	82874 <__aeabi_dmul+0x164>
   82808:	340c      	adds	r4, #12
   8280a:	dc1b      	bgt.n	82844 <__aeabi_dmul+0x134>
   8280c:	f104 0414 	add.w	r4, r4, #20
   82810:	f1c4 0520 	rsb	r5, r4, #32
   82814:	fa00 f305 	lsl.w	r3, r0, r5
   82818:	fa20 f004 	lsr.w	r0, r0, r4
   8281c:	fa01 f205 	lsl.w	r2, r1, r5
   82820:	ea40 0002 	orr.w	r0, r0, r2
   82824:	f001 4200 	and.w	r2, r1, #2147483648	; 0x80000000
   82828:	f021 4100 	bic.w	r1, r1, #2147483648	; 0x80000000
   8282c:	eb10 70d3 	adds.w	r0, r0, r3, lsr #31
   82830:	fa21 f604 	lsr.w	r6, r1, r4
   82834:	eb42 0106 	adc.w	r1, r2, r6
   82838:	ea5e 0e43 	orrs.w	lr, lr, r3, lsl #1
   8283c:	bf08      	it	eq
   8283e:	ea20 70d3 	biceq.w	r0, r0, r3, lsr #31
   82842:	bd70      	pop	{r4, r5, r6, pc}
   82844:	f1c4 040c 	rsb	r4, r4, #12
   82848:	f1c4 0520 	rsb	r5, r4, #32
   8284c:	fa00 f304 	lsl.w	r3, r0, r4
   82850:	fa20 f005 	lsr.w	r0, r0, r5
   82854:	fa01 f204 	lsl.w	r2, r1, r4
   82858:	ea40 0002 	orr.w	r0, r0, r2
   8285c:	f001 4100 	and.w	r1, r1, #2147483648	; 0x80000000
   82860:	eb10 70d3 	adds.w	r0, r0, r3, lsr #31
   82864:	f141 0100 	adc.w	r1, r1, #0
   82868:	ea5e 0e43 	orrs.w	lr, lr, r3, lsl #1
   8286c:	bf08      	it	eq
   8286e:	ea20 70d3 	biceq.w	r0, r0, r3, lsr #31
   82872:	bd70      	pop	{r4, r5, r6, pc}
   82874:	f1c4 0520 	rsb	r5, r4, #32
   82878:	fa00 f205 	lsl.w	r2, r0, r5
   8287c:	ea4e 0e02 	orr.w	lr, lr, r2
   82880:	fa20 f304 	lsr.w	r3, r0, r4
   82884:	fa01 f205 	lsl.w	r2, r1, r5
   82888:	ea43 0302 	orr.w	r3, r3, r2
   8288c:	fa21 f004 	lsr.w	r0, r1, r4
   82890:	f001 4100 	and.w	r1, r1, #2147483648	; 0x80000000
   82894:	fa21 f204 	lsr.w	r2, r1, r4
   82898:	ea20 0002 	bic.w	r0, r0, r2
   8289c:	eb00 70d3 	add.w	r0, r0, r3, lsr #31
   828a0:	ea5e 0e43 	orrs.w	lr, lr, r3, lsl #1
   828a4:	bf08      	it	eq
   828a6:	ea20 70d3 	biceq.w	r0, r0, r3, lsr #31
   828aa:	bd70      	pop	{r4, r5, r6, pc}
   828ac:	f094 0f00 	teq	r4, #0
   828b0:	d10f      	bne.n	828d2 <__aeabi_dmul+0x1c2>
   828b2:	f001 4600 	and.w	r6, r1, #2147483648	; 0x80000000
   828b6:	0040      	lsls	r0, r0, #1
   828b8:	eb41 0101 	adc.w	r1, r1, r1
   828bc:	f411 1f80 	tst.w	r1, #1048576	; 0x100000
   828c0:	bf08      	it	eq
   828c2:	3c01      	subeq	r4, #1
   828c4:	d0f7      	beq.n	828b6 <__aeabi_dmul+0x1a6>
   828c6:	ea41 0106 	orr.w	r1, r1, r6
   828ca:	f095 0f00 	teq	r5, #0
   828ce:	bf18      	it	ne
   828d0:	4770      	bxne	lr
   828d2:	f003 4600 	and.w	r6, r3, #2147483648	; 0x80000000
   828d6:	0052      	lsls	r2, r2, #1
   828d8:	eb43 0303 	adc.w	r3, r3, r3
   828dc:	f413 1f80 	tst.w	r3, #1048576	; 0x100000
   828e0:	bf08      	it	eq
   828e2:	3d01      	subeq	r5, #1
   828e4:	d0f7      	beq.n	828d6 <__aeabi_dmul+0x1c6>
   828e6:	ea43 0306 	orr.w	r3, r3, r6
   828ea:	4770      	bx	lr
   828ec:	ea94 0f0c 	teq	r4, ip
   828f0:	ea0c 5513 	and.w	r5, ip, r3, lsr #20
   828f4:	bf18      	it	ne
   828f6:	ea95 0f0c 	teqne	r5, ip
   828fa:	d00c      	beq.n	82916 <__aeabi_dmul+0x206>
   828fc:	ea50 0641 	orrs.w	r6, r0, r1, lsl #1
   82900:	bf18      	it	ne
   82902:	ea52 0643 	orrsne.w	r6, r2, r3, lsl #1
   82906:	d1d1      	bne.n	828ac <__aeabi_dmul+0x19c>
   82908:	ea81 0103 	eor.w	r1, r1, r3
   8290c:	f001 4100 	and.w	r1, r1, #2147483648	; 0x80000000
   82910:	f04f 0000 	mov.w	r0, #0
   82914:	bd70      	pop	{r4, r5, r6, pc}
   82916:	ea50 0641 	orrs.w	r6, r0, r1, lsl #1
   8291a:	bf06      	itte	eq
   8291c:	4610      	moveq	r0, r2
   8291e:	4619      	moveq	r1, r3
   82920:	ea52 0643 	orrsne.w	r6, r2, r3, lsl #1
   82924:	d019      	beq.n	8295a <__aeabi_dmul+0x24a>
   82926:	ea94 0f0c 	teq	r4, ip
   8292a:	d102      	bne.n	82932 <__aeabi_dmul+0x222>
   8292c:	ea50 3601 	orrs.w	r6, r0, r1, lsl #12
   82930:	d113      	bne.n	8295a <__aeabi_dmul+0x24a>
   82932:	ea95 0f0c 	teq	r5, ip
   82936:	d105      	bne.n	82944 <__aeabi_dmul+0x234>
   82938:	ea52 3603 	orrs.w	r6, r2, r3, lsl #12
   8293c:	bf1c      	itt	ne
   8293e:	4610      	movne	r0, r2
   82940:	4619      	movne	r1, r3
   82942:	d10a      	bne.n	8295a <__aeabi_dmul+0x24a>
   82944:	ea81 0103 	eor.w	r1, r1, r3
   82948:	f001 4100 	and.w	r1, r1, #2147483648	; 0x80000000
   8294c:	f041 41fe 	orr.w	r1, r1, #2130706432	; 0x7f000000
   82950:	f441 0170 	orr.w	r1, r1, #15728640	; 0xf00000
   82954:	f04f 0000 	mov.w	r0, #0
   82958:	bd70      	pop	{r4, r5, r6, pc}
   8295a:	f041 41fe 	orr.w	r1, r1, #2130706432	; 0x7f000000
   8295e:	f441 0178 	orr.w	r1, r1, #16252928	; 0xf80000
   82962:	bd70      	pop	{r4, r5, r6, pc}

00082964 <__aeabi_ddiv>:
   82964:	b570      	push	{r4, r5, r6, lr}
   82966:	f04f 0cff 	mov.w	ip, #255	; 0xff
   8296a:	f44c 6ce0 	orr.w	ip, ip, #1792	; 0x700
   8296e:	ea1c 5411 	ands.w	r4, ip, r1, lsr #20
   82972:	bf1d      	ittte	ne
   82974:	ea1c 5513 	andsne.w	r5, ip, r3, lsr #20
   82978:	ea94 0f0c 	teqne	r4, ip
   8297c:	ea95 0f0c 	teqne	r5, ip
   82980:	f000 f8a7 	bleq	82ad2 <__aeabi_ddiv+0x16e>
   82984:	eba4 0405 	sub.w	r4, r4, r5
   82988:	ea81 0e03 	eor.w	lr, r1, r3
   8298c:	ea52 3503 	orrs.w	r5, r2, r3, lsl #12
   82990:	ea4f 3101 	mov.w	r1, r1, lsl #12
   82994:	f000 8088 	beq.w	82aa8 <__aeabi_ddiv+0x144>
   82998:	ea4f 3303 	mov.w	r3, r3, lsl #12
   8299c:	f04f 5580 	mov.w	r5, #268435456	; 0x10000000
   829a0:	ea45 1313 	orr.w	r3, r5, r3, lsr #4
   829a4:	ea43 6312 	orr.w	r3, r3, r2, lsr #24
   829a8:	ea4f 2202 	mov.w	r2, r2, lsl #8
   829ac:	ea45 1511 	orr.w	r5, r5, r1, lsr #4
   829b0:	ea45 6510 	orr.w	r5, r5, r0, lsr #24
   829b4:	ea4f 2600 	mov.w	r6, r0, lsl #8
   829b8:	f00e 4100 	and.w	r1, lr, #2147483648	; 0x80000000
   829bc:	429d      	cmp	r5, r3
   829be:	bf08      	it	eq
   829c0:	4296      	cmpeq	r6, r2
   829c2:	f144 04fd 	adc.w	r4, r4, #253	; 0xfd
   829c6:	f504 7440 	add.w	r4, r4, #768	; 0x300
   829ca:	d202      	bcs.n	829d2 <__aeabi_ddiv+0x6e>
   829cc:	085b      	lsrs	r3, r3, #1
   829ce:	ea4f 0232 	mov.w	r2, r2, rrx
   829d2:	1ab6      	subs	r6, r6, r2
   829d4:	eb65 0503 	sbc.w	r5, r5, r3
   829d8:	085b      	lsrs	r3, r3, #1
   829da:	ea4f 0232 	mov.w	r2, r2, rrx
   829de:	f44f 1080 	mov.w	r0, #1048576	; 0x100000
   829e2:	f44f 2c00 	mov.w	ip, #524288	; 0x80000
   829e6:	ebb6 0e02 	subs.w	lr, r6, r2
   829ea:	eb75 0e03 	sbcs.w	lr, r5, r3
   829ee:	bf22      	ittt	cs
   829f0:	1ab6      	subcs	r6, r6, r2
   829f2:	4675      	movcs	r5, lr
   829f4:	ea40 000c 	orrcs.w	r0, r0, ip
   829f8:	085b      	lsrs	r3, r3, #1
   829fa:	ea4f 0232 	mov.w	r2, r2, rrx
   829fe:	ebb6 0e02 	subs.w	lr, r6, r2
   82a02:	eb75 0e03 	sbcs.w	lr, r5, r3
   82a06:	bf22      	ittt	cs
   82a08:	1ab6      	subcs	r6, r6, r2
   82a0a:	4675      	movcs	r5, lr
   82a0c:	ea40 005c 	orrcs.w	r0, r0, ip, lsr #1
   82a10:	085b      	lsrs	r3, r3, #1
   82a12:	ea4f 0232 	mov.w	r2, r2, rrx
   82a16:	ebb6 0e02 	subs.w	lr, r6, r2
   82a1a:	eb75 0e03 	sbcs.w	lr, r5, r3
   82a1e:	bf22      	ittt	cs
   82a20:	1ab6      	subcs	r6, r6, r2
   82a22:	4675      	movcs	r5, lr
   82a24:	ea40 009c 	orrcs.w	r0, r0, ip, lsr #2
   82a28:	085b      	lsrs	r3, r3, #1
   82a2a:	ea4f 0232 	mov.w	r2, r2, rrx
   82a2e:	ebb6 0e02 	subs.w	lr, r6, r2
   82a32:	eb75 0e03 	sbcs.w	lr, r5, r3
   82a36:	bf22      	ittt	cs
   82a38:	1ab6      	subcs	r6, r6, r2
   82a3a:	4675      	movcs	r5, lr
   82a3c:	ea40 00dc 	orrcs.w	r0, r0, ip, lsr #3
   82a40:	ea55 0e06 	orrs.w	lr, r5, r6
   82a44:	d018      	beq.n	82a78 <__aeabi_ddiv+0x114>
   82a46:	ea4f 1505 	mov.w	r5, r5, lsl #4
   82a4a:	ea45 7516 	orr.w	r5, r5, r6, lsr #28
   82a4e:	ea4f 1606 	mov.w	r6, r6, lsl #4
   82a52:	ea4f 03c3 	mov.w	r3, r3, lsl #3
   82a56:	ea43 7352 	orr.w	r3, r3, r2, lsr #29
   82a5a:	ea4f 02c2 	mov.w	r2, r2, lsl #3
   82a5e:	ea5f 1c1c 	movs.w	ip, ip, lsr #4
   82a62:	d1c0      	bne.n	829e6 <__aeabi_ddiv+0x82>
   82a64:	f411 1f80 	tst.w	r1, #1048576	; 0x100000
   82a68:	d10b      	bne.n	82a82 <__aeabi_ddiv+0x11e>
   82a6a:	ea41 0100 	orr.w	r1, r1, r0
   82a6e:	f04f 0000 	mov.w	r0, #0
   82a72:	f04f 4c00 	mov.w	ip, #2147483648	; 0x80000000
   82a76:	e7b6      	b.n	829e6 <__aeabi_ddiv+0x82>
   82a78:	f411 1f80 	tst.w	r1, #1048576	; 0x100000
   82a7c:	bf04      	itt	eq
   82a7e:	4301      	orreq	r1, r0
   82a80:	2000      	moveq	r0, #0
   82a82:	f1b4 0cfd 	subs.w	ip, r4, #253	; 0xfd
   82a86:	bf88      	it	hi
   82a88:	f5bc 6fe0 	cmphi.w	ip, #1792	; 0x700
   82a8c:	f63f aeaf 	bhi.w	827ee <__aeabi_dmul+0xde>
   82a90:	ebb5 0c03 	subs.w	ip, r5, r3
   82a94:	bf04      	itt	eq
   82a96:	ebb6 0c02 	subseq.w	ip, r6, r2
   82a9a:	ea5f 0c50 	movseq.w	ip, r0, lsr #1
   82a9e:	f150 0000 	adcs.w	r0, r0, #0
   82aa2:	eb41 5104 	adc.w	r1, r1, r4, lsl #20
   82aa6:	bd70      	pop	{r4, r5, r6, pc}
   82aa8:	f00e 4e00 	and.w	lr, lr, #2147483648	; 0x80000000
   82aac:	ea4e 3111 	orr.w	r1, lr, r1, lsr #12
   82ab0:	eb14 045c 	adds.w	r4, r4, ip, lsr #1
   82ab4:	bfc2      	ittt	gt
   82ab6:	ebd4 050c 	rsbsgt	r5, r4, ip
   82aba:	ea41 5104 	orrgt.w	r1, r1, r4, lsl #20
   82abe:	bd70      	popgt	{r4, r5, r6, pc}
   82ac0:	f441 1180 	orr.w	r1, r1, #1048576	; 0x100000
   82ac4:	f04f 0e00 	mov.w	lr, #0
   82ac8:	3c01      	subs	r4, #1
   82aca:	e690      	b.n	827ee <__aeabi_dmul+0xde>
   82acc:	ea45 0e06 	orr.w	lr, r5, r6
   82ad0:	e68d      	b.n	827ee <__aeabi_dmul+0xde>
   82ad2:	ea0c 5513 	and.w	r5, ip, r3, lsr #20
   82ad6:	ea94 0f0c 	teq	r4, ip
   82ada:	bf08      	it	eq
   82adc:	ea95 0f0c 	teqeq	r5, ip
   82ae0:	f43f af3b 	beq.w	8295a <__aeabi_dmul+0x24a>
   82ae4:	ea94 0f0c 	teq	r4, ip
   82ae8:	d10a      	bne.n	82b00 <__aeabi_ddiv+0x19c>
   82aea:	ea50 3401 	orrs.w	r4, r0, r1, lsl #12
   82aee:	f47f af34 	bne.w	8295a <__aeabi_dmul+0x24a>
   82af2:	ea95 0f0c 	teq	r5, ip
   82af6:	f47f af25 	bne.w	82944 <__aeabi_dmul+0x234>
   82afa:	4610      	mov	r0, r2
   82afc:	4619      	mov	r1, r3
   82afe:	e72c      	b.n	8295a <__aeabi_dmul+0x24a>
   82b00:	ea95 0f0c 	teq	r5, ip
   82b04:	d106      	bne.n	82b14 <__aeabi_ddiv+0x1b0>
   82b06:	ea52 3503 	orrs.w	r5, r2, r3, lsl #12
   82b0a:	f43f aefd 	beq.w	82908 <__aeabi_dmul+0x1f8>
   82b0e:	4610      	mov	r0, r2
   82b10:	4619      	mov	r1, r3
   82b12:	e722      	b.n	8295a <__aeabi_dmul+0x24a>
   82b14:	ea50 0641 	orrs.w	r6, r0, r1, lsl #1
   82b18:	bf18      	it	ne
   82b1a:	ea52 0643 	orrsne.w	r6, r2, r3, lsl #1
   82b1e:	f47f aec5 	bne.w	828ac <__aeabi_dmul+0x19c>
   82b22:	ea50 0441 	orrs.w	r4, r0, r1, lsl #1
   82b26:	f47f af0d 	bne.w	82944 <__aeabi_dmul+0x234>
   82b2a:	ea52 0543 	orrs.w	r5, r2, r3, lsl #1
   82b2e:	f47f aeeb 	bne.w	82908 <__aeabi_dmul+0x1f8>
   82b32:	e712      	b.n	8295a <__aeabi_dmul+0x24a>

00082b34 <__aeabi_d2f>:
   82b34:	ea4f 0241 	mov.w	r2, r1, lsl #1
   82b38:	f1b2 43e0 	subs.w	r3, r2, #1879048192	; 0x70000000
   82b3c:	bf24      	itt	cs
   82b3e:	f5b3 1c00 	subscs.w	ip, r3, #2097152	; 0x200000
   82b42:	f1dc 5cfe 	rsbscs	ip, ip, #532676608	; 0x1fc00000
   82b46:	d90d      	bls.n	82b64 <__aeabi_d2f+0x30>
   82b48:	f001 4c00 	and.w	ip, r1, #2147483648	; 0x80000000
   82b4c:	ea4f 02c0 	mov.w	r2, r0, lsl #3
   82b50:	ea4c 7050 	orr.w	r0, ip, r0, lsr #29
   82b54:	f1b2 4f00 	cmp.w	r2, #2147483648	; 0x80000000
   82b58:	eb40 0083 	adc.w	r0, r0, r3, lsl #2
   82b5c:	bf08      	it	eq
   82b5e:	f020 0001 	biceq.w	r0, r0, #1
   82b62:	4770      	bx	lr
   82b64:	f011 4f80 	tst.w	r1, #1073741824	; 0x40000000
   82b68:	d121      	bne.n	82bae <__aeabi_d2f+0x7a>
   82b6a:	f113 7238 	adds.w	r2, r3, #48234496	; 0x2e00000
   82b6e:	bfbc      	itt	lt
   82b70:	f001 4000 	andlt.w	r0, r1, #2147483648	; 0x80000000
   82b74:	4770      	bxlt	lr
   82b76:	f441 1180 	orr.w	r1, r1, #1048576	; 0x100000
   82b7a:	ea4f 5252 	mov.w	r2, r2, lsr #21
   82b7e:	f1c2 0218 	rsb	r2, r2, #24
   82b82:	f1c2 0c20 	rsb	ip, r2, #32
   82b86:	fa10 f30c 	lsls.w	r3, r0, ip
   82b8a:	fa20 f002 	lsr.w	r0, r0, r2
   82b8e:	bf18      	it	ne
   82b90:	f040 0001 	orrne.w	r0, r0, #1
   82b94:	ea4f 23c1 	mov.w	r3, r1, lsl #11
   82b98:	ea4f 23d3 	mov.w	r3, r3, lsr #11
   82b9c:	fa03 fc0c 	lsl.w	ip, r3, ip
   82ba0:	ea40 000c 	orr.w	r0, r0, ip
   82ba4:	fa23 f302 	lsr.w	r3, r3, r2
   82ba8:	ea4f 0343 	mov.w	r3, r3, lsl #1
   82bac:	e7cc      	b.n	82b48 <__aeabi_d2f+0x14>
   82bae:	ea7f 5362 	mvns.w	r3, r2, asr #21
   82bb2:	d107      	bne.n	82bc4 <__aeabi_d2f+0x90>
   82bb4:	ea50 3301 	orrs.w	r3, r0, r1, lsl #12
   82bb8:	bf1e      	ittt	ne
   82bba:	f04f 40fe 	movne.w	r0, #2130706432	; 0x7f000000
   82bbe:	f440 0040 	orrne.w	r0, r0, #12582912	; 0xc00000
   82bc2:	4770      	bxne	lr
   82bc4:	f001 4000 	and.w	r0, r1, #2147483648	; 0x80000000
   82bc8:	f040 40fe 	orr.w	r0, r0, #2130706432	; 0x7f000000
   82bcc:	f440 0000 	orr.w	r0, r0, #8388608	; 0x800000
   82bd0:	4770      	bx	lr
   82bd2:	bf00      	nop

00082bd4 <__aeabi_frsub>:
   82bd4:	f080 4000 	eor.w	r0, r0, #2147483648	; 0x80000000
   82bd8:	e002      	b.n	82be0 <__addsf3>
   82bda:	bf00      	nop

00082bdc <__aeabi_fsub>:
   82bdc:	f081 4100 	eor.w	r1, r1, #2147483648	; 0x80000000

00082be0 <__addsf3>:
   82be0:	0042      	lsls	r2, r0, #1
   82be2:	bf1f      	itttt	ne
   82be4:	ea5f 0341 	movsne.w	r3, r1, lsl #1
   82be8:	ea92 0f03 	teqne	r2, r3
   82bec:	ea7f 6c22 	mvnsne.w	ip, r2, asr #24
   82bf0:	ea7f 6c23 	mvnsne.w	ip, r3, asr #24
   82bf4:	d06a      	beq.n	82ccc <__addsf3+0xec>
   82bf6:	ea4f 6212 	mov.w	r2, r2, lsr #24
   82bfa:	ebd2 6313 	rsbs	r3, r2, r3, lsr #24
   82bfe:	bfc1      	itttt	gt
   82c00:	18d2      	addgt	r2, r2, r3
   82c02:	4041      	eorgt	r1, r0
   82c04:	4048      	eorgt	r0, r1
   82c06:	4041      	eorgt	r1, r0
   82c08:	bfb8      	it	lt
   82c0a:	425b      	neglt	r3, r3
   82c0c:	2b19      	cmp	r3, #25
   82c0e:	bf88      	it	hi
   82c10:	4770      	bxhi	lr
   82c12:	f010 4f00 	tst.w	r0, #2147483648	; 0x80000000
   82c16:	f440 0000 	orr.w	r0, r0, #8388608	; 0x800000
   82c1a:	f020 407f 	bic.w	r0, r0, #4278190080	; 0xff000000
   82c1e:	bf18      	it	ne
   82c20:	4240      	negne	r0, r0
   82c22:	f011 4f00 	tst.w	r1, #2147483648	; 0x80000000
   82c26:	f441 0100 	orr.w	r1, r1, #8388608	; 0x800000
   82c2a:	f021 417f 	bic.w	r1, r1, #4278190080	; 0xff000000
   82c2e:	bf18      	it	ne
   82c30:	4249      	negne	r1, r1
   82c32:	ea92 0f03 	teq	r2, r3
   82c36:	d03f      	beq.n	82cb8 <__addsf3+0xd8>
   82c38:	f1a2 0201 	sub.w	r2, r2, #1
   82c3c:	fa41 fc03 	asr.w	ip, r1, r3
   82c40:	eb10 000c 	adds.w	r0, r0, ip
   82c44:	f1c3 0320 	rsb	r3, r3, #32
   82c48:	fa01 f103 	lsl.w	r1, r1, r3
   82c4c:	f000 4300 	and.w	r3, r0, #2147483648	; 0x80000000
   82c50:	d502      	bpl.n	82c58 <__addsf3+0x78>
   82c52:	4249      	negs	r1, r1
   82c54:	eb60 0040 	sbc.w	r0, r0, r0, lsl #1
   82c58:	f5b0 0f00 	cmp.w	r0, #8388608	; 0x800000
   82c5c:	d313      	bcc.n	82c86 <__addsf3+0xa6>
   82c5e:	f1b0 7f80 	cmp.w	r0, #16777216	; 0x1000000
   82c62:	d306      	bcc.n	82c72 <__addsf3+0x92>
   82c64:	0840      	lsrs	r0, r0, #1
   82c66:	ea4f 0131 	mov.w	r1, r1, rrx
   82c6a:	f102 0201 	add.w	r2, r2, #1
   82c6e:	2afe      	cmp	r2, #254	; 0xfe
   82c70:	d251      	bcs.n	82d16 <__addsf3+0x136>
   82c72:	f1b1 4f00 	cmp.w	r1, #2147483648	; 0x80000000
   82c76:	eb40 50c2 	adc.w	r0, r0, r2, lsl #23
   82c7a:	bf08      	it	eq
   82c7c:	f020 0001 	biceq.w	r0, r0, #1
   82c80:	ea40 0003 	orr.w	r0, r0, r3
   82c84:	4770      	bx	lr
   82c86:	0049      	lsls	r1, r1, #1
   82c88:	eb40 0000 	adc.w	r0, r0, r0
   82c8c:	f410 0f00 	tst.w	r0, #8388608	; 0x800000
   82c90:	f1a2 0201 	sub.w	r2, r2, #1
   82c94:	d1ed      	bne.n	82c72 <__addsf3+0x92>
   82c96:	fab0 fc80 	clz	ip, r0
   82c9a:	f1ac 0c08 	sub.w	ip, ip, #8
   82c9e:	ebb2 020c 	subs.w	r2, r2, ip
   82ca2:	fa00 f00c 	lsl.w	r0, r0, ip
   82ca6:	bfaa      	itet	ge
   82ca8:	eb00 50c2 	addge.w	r0, r0, r2, lsl #23
   82cac:	4252      	neglt	r2, r2
   82cae:	4318      	orrge	r0, r3
   82cb0:	bfbc      	itt	lt
   82cb2:	40d0      	lsrlt	r0, r2
   82cb4:	4318      	orrlt	r0, r3
   82cb6:	4770      	bx	lr
   82cb8:	f092 0f00 	teq	r2, #0
   82cbc:	f481 0100 	eor.w	r1, r1, #8388608	; 0x800000
   82cc0:	bf06      	itte	eq
   82cc2:	f480 0000 	eoreq.w	r0, r0, #8388608	; 0x800000
   82cc6:	3201      	addeq	r2, #1
   82cc8:	3b01      	subne	r3, #1
   82cca:	e7b5      	b.n	82c38 <__addsf3+0x58>
   82ccc:	ea4f 0341 	mov.w	r3, r1, lsl #1
   82cd0:	ea7f 6c22 	mvns.w	ip, r2, asr #24
   82cd4:	bf18      	it	ne
   82cd6:	ea7f 6c23 	mvnsne.w	ip, r3, asr #24
   82cda:	d021      	beq.n	82d20 <__addsf3+0x140>
   82cdc:	ea92 0f03 	teq	r2, r3
   82ce0:	d004      	beq.n	82cec <__addsf3+0x10c>
   82ce2:	f092 0f00 	teq	r2, #0
   82ce6:	bf08      	it	eq
   82ce8:	4608      	moveq	r0, r1
   82cea:	4770      	bx	lr
   82cec:	ea90 0f01 	teq	r0, r1
   82cf0:	bf1c      	itt	ne
   82cf2:	2000      	movne	r0, #0
   82cf4:	4770      	bxne	lr
   82cf6:	f012 4f7f 	tst.w	r2, #4278190080	; 0xff000000
   82cfa:	d104      	bne.n	82d06 <__addsf3+0x126>
   82cfc:	0040      	lsls	r0, r0, #1
   82cfe:	bf28      	it	cs
   82d00:	f040 4000 	orrcs.w	r0, r0, #2147483648	; 0x80000000
   82d04:	4770      	bx	lr
   82d06:	f112 7200 	adds.w	r2, r2, #33554432	; 0x2000000
   82d0a:	bf3c      	itt	cc
   82d0c:	f500 0000 	addcc.w	r0, r0, #8388608	; 0x800000
   82d10:	4770      	bxcc	lr
   82d12:	f000 4300 	and.w	r3, r0, #2147483648	; 0x80000000
   82d16:	f043 40fe 	orr.w	r0, r3, #2130706432	; 0x7f000000
   82d1a:	f440 0000 	orr.w	r0, r0, #8388608	; 0x800000
   82d1e:	4770      	bx	lr
   82d20:	ea7f 6222 	mvns.w	r2, r2, asr #24
   82d24:	bf16      	itet	ne
   82d26:	4608      	movne	r0, r1
   82d28:	ea7f 6323 	mvnseq.w	r3, r3, asr #24
   82d2c:	4601      	movne	r1, r0
   82d2e:	0242      	lsls	r2, r0, #9
   82d30:	bf06      	itte	eq
   82d32:	ea5f 2341 	movseq.w	r3, r1, lsl #9
   82d36:	ea90 0f01 	teqeq	r0, r1
   82d3a:	f440 0080 	orrne.w	r0, r0, #4194304	; 0x400000
   82d3e:	4770      	bx	lr

00082d40 <__aeabi_ui2f>:
   82d40:	f04f 0300 	mov.w	r3, #0
   82d44:	e004      	b.n	82d50 <__aeabi_i2f+0x8>
   82d46:	bf00      	nop

00082d48 <__aeabi_i2f>:
   82d48:	f010 4300 	ands.w	r3, r0, #2147483648	; 0x80000000
   82d4c:	bf48      	it	mi
   82d4e:	4240      	negmi	r0, r0
   82d50:	ea5f 0c00 	movs.w	ip, r0
   82d54:	bf08      	it	eq
   82d56:	4770      	bxeq	lr
   82d58:	f043 4396 	orr.w	r3, r3, #1258291200	; 0x4b000000
   82d5c:	4601      	mov	r1, r0
   82d5e:	f04f 0000 	mov.w	r0, #0
   82d62:	e01c      	b.n	82d9e <__aeabi_l2f+0x2a>

00082d64 <__aeabi_ul2f>:
   82d64:	ea50 0201 	orrs.w	r2, r0, r1
   82d68:	bf08      	it	eq
   82d6a:	4770      	bxeq	lr
   82d6c:	f04f 0300 	mov.w	r3, #0
   82d70:	e00a      	b.n	82d88 <__aeabi_l2f+0x14>
   82d72:	bf00      	nop

00082d74 <__aeabi_l2f>:
   82d74:	ea50 0201 	orrs.w	r2, r0, r1
   82d78:	bf08      	it	eq
   82d7a:	4770      	bxeq	lr
   82d7c:	f011 4300 	ands.w	r3, r1, #2147483648	; 0x80000000
   82d80:	d502      	bpl.n	82d88 <__aeabi_l2f+0x14>
   82d82:	4240      	negs	r0, r0
   82d84:	eb61 0141 	sbc.w	r1, r1, r1, lsl #1
   82d88:	ea5f 0c01 	movs.w	ip, r1
   82d8c:	bf02      	ittt	eq
   82d8e:	4684      	moveq	ip, r0
   82d90:	4601      	moveq	r1, r0
   82d92:	2000      	moveq	r0, #0
   82d94:	f043 43b6 	orr.w	r3, r3, #1526726656	; 0x5b000000
   82d98:	bf08      	it	eq
   82d9a:	f1a3 5380 	subeq.w	r3, r3, #268435456	; 0x10000000
   82d9e:	f5a3 0300 	sub.w	r3, r3, #8388608	; 0x800000
   82da2:	fabc f28c 	clz	r2, ip
   82da6:	3a08      	subs	r2, #8
   82da8:	eba3 53c2 	sub.w	r3, r3, r2, lsl #23
   82dac:	db10      	blt.n	82dd0 <__aeabi_l2f+0x5c>
   82dae:	fa01 fc02 	lsl.w	ip, r1, r2
   82db2:	4463      	add	r3, ip
   82db4:	fa00 fc02 	lsl.w	ip, r0, r2
   82db8:	f1c2 0220 	rsb	r2, r2, #32
   82dbc:	f1bc 4f00 	cmp.w	ip, #2147483648	; 0x80000000
   82dc0:	fa20 f202 	lsr.w	r2, r0, r2
   82dc4:	eb43 0002 	adc.w	r0, r3, r2
   82dc8:	bf08      	it	eq
   82dca:	f020 0001 	biceq.w	r0, r0, #1
   82dce:	4770      	bx	lr
   82dd0:	f102 0220 	add.w	r2, r2, #32
   82dd4:	fa01 fc02 	lsl.w	ip, r1, r2
   82dd8:	f1c2 0220 	rsb	r2, r2, #32
   82ddc:	ea50 004c 	orrs.w	r0, r0, ip, lsl #1
   82de0:	fa21 f202 	lsr.w	r2, r1, r2
   82de4:	eb43 0002 	adc.w	r0, r3, r2
   82de8:	bf08      	it	eq
   82dea:	ea20 70dc 	biceq.w	r0, r0, ip, lsr #31
   82dee:	4770      	bx	lr

00082df0 <__aeabi_f2iz>:
   82df0:	ea4f 0240 	mov.w	r2, r0, lsl #1
   82df4:	f1b2 4ffe 	cmp.w	r2, #2130706432	; 0x7f000000
   82df8:	d30f      	bcc.n	82e1a <__aeabi_f2iz+0x2a>
   82dfa:	f04f 039e 	mov.w	r3, #158	; 0x9e
   82dfe:	ebb3 6212 	subs.w	r2, r3, r2, lsr #24
   82e02:	d90d      	bls.n	82e20 <__aeabi_f2iz+0x30>
   82e04:	ea4f 2300 	mov.w	r3, r0, lsl #8
   82e08:	f043 4300 	orr.w	r3, r3, #2147483648	; 0x80000000
   82e0c:	f010 4f00 	tst.w	r0, #2147483648	; 0x80000000
   82e10:	fa23 f002 	lsr.w	r0, r3, r2
   82e14:	bf18      	it	ne
   82e16:	4240      	negne	r0, r0
   82e18:	4770      	bx	lr
   82e1a:	f04f 0000 	mov.w	r0, #0
   82e1e:	4770      	bx	lr
   82e20:	f112 0f61 	cmn.w	r2, #97	; 0x61
   82e24:	d101      	bne.n	82e2a <__aeabi_f2iz+0x3a>
   82e26:	0242      	lsls	r2, r0, #9
   82e28:	d105      	bne.n	82e36 <__aeabi_f2iz+0x46>
   82e2a:	f010 4000 	ands.w	r0, r0, #2147483648	; 0x80000000
   82e2e:	bf08      	it	eq
   82e30:	f06f 4000 	mvneq.w	r0, #2147483648	; 0x80000000
   82e34:	4770      	bx	lr
   82e36:	f04f 0000 	mov.w	r0, #0
   82e3a:	4770      	bx	lr

00082e3c <__libc_init_array>:
   82e3c:	b570      	push	{r4, r5, r6, lr}
   82e3e:	4e0f      	ldr	r6, [pc, #60]	; (82e7c <__libc_init_array+0x40>)
   82e40:	4d0f      	ldr	r5, [pc, #60]	; (82e80 <__libc_init_array+0x44>)
   82e42:	1b76      	subs	r6, r6, r5
   82e44:	10b6      	asrs	r6, r6, #2
   82e46:	bf18      	it	ne
   82e48:	2400      	movne	r4, #0
   82e4a:	d005      	beq.n	82e58 <__libc_init_array+0x1c>
   82e4c:	3401      	adds	r4, #1
   82e4e:	f855 3b04 	ldr.w	r3, [r5], #4
   82e52:	4798      	blx	r3
   82e54:	42a6      	cmp	r6, r4
   82e56:	d1f9      	bne.n	82e4c <__libc_init_array+0x10>
   82e58:	4e0a      	ldr	r6, [pc, #40]	; (82e84 <__libc_init_array+0x48>)
   82e5a:	4d0b      	ldr	r5, [pc, #44]	; (82e88 <__libc_init_array+0x4c>)
   82e5c:	f001 f82c 	bl	83eb8 <_init>
   82e60:	1b76      	subs	r6, r6, r5
   82e62:	10b6      	asrs	r6, r6, #2
   82e64:	bf18      	it	ne
   82e66:	2400      	movne	r4, #0
   82e68:	d006      	beq.n	82e78 <__libc_init_array+0x3c>
   82e6a:	3401      	adds	r4, #1
   82e6c:	f855 3b04 	ldr.w	r3, [r5], #4
   82e70:	4798      	blx	r3
   82e72:	42a6      	cmp	r6, r4
   82e74:	d1f9      	bne.n	82e6a <__libc_init_array+0x2e>
   82e76:	bd70      	pop	{r4, r5, r6, pc}
   82e78:	bd70      	pop	{r4, r5, r6, pc}
   82e7a:	bf00      	nop
   82e7c:	00083ec4 	.word	0x00083ec4
   82e80:	00083ec4 	.word	0x00083ec4
   82e84:	00083ecc 	.word	0x00083ecc
   82e88:	00083ec4 	.word	0x00083ec4

00082e8c <memset>:
   82e8c:	b470      	push	{r4, r5, r6}
   82e8e:	0784      	lsls	r4, r0, #30
   82e90:	d046      	beq.n	82f20 <memset+0x94>
   82e92:	1e54      	subs	r4, r2, #1
   82e94:	2a00      	cmp	r2, #0
   82e96:	d041      	beq.n	82f1c <memset+0x90>
   82e98:	b2cd      	uxtb	r5, r1
   82e9a:	4603      	mov	r3, r0
   82e9c:	e002      	b.n	82ea4 <memset+0x18>
   82e9e:	1e62      	subs	r2, r4, #1
   82ea0:	b3e4      	cbz	r4, 82f1c <memset+0x90>
   82ea2:	4614      	mov	r4, r2
   82ea4:	f803 5b01 	strb.w	r5, [r3], #1
   82ea8:	079a      	lsls	r2, r3, #30
   82eaa:	d1f8      	bne.n	82e9e <memset+0x12>
   82eac:	2c03      	cmp	r4, #3
   82eae:	d92e      	bls.n	82f0e <memset+0x82>
   82eb0:	b2cd      	uxtb	r5, r1
   82eb2:	ea45 2505 	orr.w	r5, r5, r5, lsl #8
   82eb6:	2c0f      	cmp	r4, #15
   82eb8:	ea45 4505 	orr.w	r5, r5, r5, lsl #16
   82ebc:	d919      	bls.n	82ef2 <memset+0x66>
   82ebe:	4626      	mov	r6, r4
   82ec0:	f103 0210 	add.w	r2, r3, #16
   82ec4:	3e10      	subs	r6, #16
   82ec6:	2e0f      	cmp	r6, #15
   82ec8:	f842 5c10 	str.w	r5, [r2, #-16]
   82ecc:	f842 5c0c 	str.w	r5, [r2, #-12]
   82ed0:	f842 5c08 	str.w	r5, [r2, #-8]
   82ed4:	f842 5c04 	str.w	r5, [r2, #-4]
   82ed8:	f102 0210 	add.w	r2, r2, #16
   82edc:	d8f2      	bhi.n	82ec4 <memset+0x38>
   82ede:	f1a4 0210 	sub.w	r2, r4, #16
   82ee2:	f022 020f 	bic.w	r2, r2, #15
   82ee6:	f004 040f 	and.w	r4, r4, #15
   82eea:	3210      	adds	r2, #16
   82eec:	2c03      	cmp	r4, #3
   82eee:	4413      	add	r3, r2
   82ef0:	d90d      	bls.n	82f0e <memset+0x82>
   82ef2:	461e      	mov	r6, r3
   82ef4:	4622      	mov	r2, r4
   82ef6:	3a04      	subs	r2, #4
   82ef8:	2a03      	cmp	r2, #3
   82efa:	f846 5b04 	str.w	r5, [r6], #4
   82efe:	d8fa      	bhi.n	82ef6 <memset+0x6a>
   82f00:	1f22      	subs	r2, r4, #4
   82f02:	f022 0203 	bic.w	r2, r2, #3
   82f06:	3204      	adds	r2, #4
   82f08:	4413      	add	r3, r2
   82f0a:	f004 0403 	and.w	r4, r4, #3
   82f0e:	b12c      	cbz	r4, 82f1c <memset+0x90>
   82f10:	b2c9      	uxtb	r1, r1
   82f12:	441c      	add	r4, r3
   82f14:	f803 1b01 	strb.w	r1, [r3], #1
   82f18:	42a3      	cmp	r3, r4
   82f1a:	d1fb      	bne.n	82f14 <memset+0x88>
   82f1c:	bc70      	pop	{r4, r5, r6}
   82f1e:	4770      	bx	lr
   82f20:	4614      	mov	r4, r2
   82f22:	4603      	mov	r3, r0
   82f24:	e7c2      	b.n	82eac <memset+0x20>
   82f26:	bf00      	nop

00082f28 <setbuf>:
   82f28:	2900      	cmp	r1, #0
   82f2a:	bf0c      	ite	eq
   82f2c:	2202      	moveq	r2, #2
   82f2e:	2200      	movne	r2, #0
   82f30:	f44f 6380 	mov.w	r3, #1024	; 0x400
   82f34:	f000 b800 	b.w	82f38 <setvbuf>

00082f38 <setvbuf>:
   82f38:	e92d 43f0 	stmdb	sp!, {r4, r5, r6, r7, r8, r9, lr}
   82f3c:	4d51      	ldr	r5, [pc, #324]	; (83084 <setvbuf+0x14c>)
   82f3e:	b083      	sub	sp, #12
   82f40:	682d      	ldr	r5, [r5, #0]
   82f42:	4604      	mov	r4, r0
   82f44:	460f      	mov	r7, r1
   82f46:	4690      	mov	r8, r2
   82f48:	461e      	mov	r6, r3
   82f4a:	b115      	cbz	r5, 82f52 <setvbuf+0x1a>
   82f4c:	6bab      	ldr	r3, [r5, #56]	; 0x38
   82f4e:	2b00      	cmp	r3, #0
   82f50:	d079      	beq.n	83046 <setvbuf+0x10e>
   82f52:	f1b8 0f02 	cmp.w	r8, #2
   82f56:	d004      	beq.n	82f62 <setvbuf+0x2a>
   82f58:	f1b8 0f01 	cmp.w	r8, #1
   82f5c:	d87f      	bhi.n	8305e <setvbuf+0x126>
   82f5e:	2e00      	cmp	r6, #0
   82f60:	db7d      	blt.n	8305e <setvbuf+0x126>
   82f62:	4621      	mov	r1, r4
   82f64:	4628      	mov	r0, r5
   82f66:	f000 f943 	bl	831f0 <_fflush_r>
   82f6a:	6b21      	ldr	r1, [r4, #48]	; 0x30
   82f6c:	b141      	cbz	r1, 82f80 <setvbuf+0x48>
   82f6e:	f104 0340 	add.w	r3, r4, #64	; 0x40
   82f72:	4299      	cmp	r1, r3
   82f74:	d002      	beq.n	82f7c <setvbuf+0x44>
   82f76:	4628      	mov	r0, r5
   82f78:	f000 fa3a 	bl	833f0 <_free_r>
   82f7c:	2300      	movs	r3, #0
   82f7e:	6323      	str	r3, [r4, #48]	; 0x30
   82f80:	f9b4 300c 	ldrsh.w	r3, [r4, #12]
   82f84:	2200      	movs	r2, #0
   82f86:	61a2      	str	r2, [r4, #24]
   82f88:	6062      	str	r2, [r4, #4]
   82f8a:	061a      	lsls	r2, r3, #24
   82f8c:	d454      	bmi.n	83038 <setvbuf+0x100>
   82f8e:	f423 634a 	bic.w	r3, r3, #3232	; 0xca0
   82f92:	f023 0303 	bic.w	r3, r3, #3
   82f96:	f1b8 0f02 	cmp.w	r8, #2
   82f9a:	81a3      	strh	r3, [r4, #12]
   82f9c:	d039      	beq.n	83012 <setvbuf+0xda>
   82f9e:	ab01      	add	r3, sp, #4
   82fa0:	466a      	mov	r2, sp
   82fa2:	4621      	mov	r1, r4
   82fa4:	4628      	mov	r0, r5
   82fa6:	f000 fb33 	bl	83610 <__swhatbuf_r>
   82faa:	89a3      	ldrh	r3, [r4, #12]
   82fac:	4318      	orrs	r0, r3
   82fae:	81a0      	strh	r0, [r4, #12]
   82fb0:	b326      	cbz	r6, 82ffc <setvbuf+0xc4>
   82fb2:	b327      	cbz	r7, 82ffe <setvbuf+0xc6>
   82fb4:	6bab      	ldr	r3, [r5, #56]	; 0x38
   82fb6:	2b00      	cmp	r3, #0
   82fb8:	d04d      	beq.n	83056 <setvbuf+0x11e>
   82fba:	9b00      	ldr	r3, [sp, #0]
   82fbc:	f9b4 000c 	ldrsh.w	r0, [r4, #12]
   82fc0:	429e      	cmp	r6, r3
   82fc2:	bf1c      	itt	ne
   82fc4:	f440 6000 	orrne.w	r0, r0, #2048	; 0x800
   82fc8:	81a0      	strhne	r0, [r4, #12]
   82fca:	f1b8 0f01 	cmp.w	r8, #1
   82fce:	bf08      	it	eq
   82fd0:	f040 0001 	orreq.w	r0, r0, #1
   82fd4:	b283      	uxth	r3, r0
   82fd6:	bf08      	it	eq
   82fd8:	81a0      	strheq	r0, [r4, #12]
   82fda:	f003 0008 	and.w	r0, r3, #8
   82fde:	b280      	uxth	r0, r0
   82fe0:	6027      	str	r7, [r4, #0]
   82fe2:	6127      	str	r7, [r4, #16]
   82fe4:	6166      	str	r6, [r4, #20]
   82fe6:	b318      	cbz	r0, 83030 <setvbuf+0xf8>
   82fe8:	f013 0001 	ands.w	r0, r3, #1
   82fec:	d02f      	beq.n	8304e <setvbuf+0x116>
   82fee:	2000      	movs	r0, #0
   82ff0:	4276      	negs	r6, r6
   82ff2:	61a6      	str	r6, [r4, #24]
   82ff4:	60a0      	str	r0, [r4, #8]
   82ff6:	b003      	add	sp, #12
   82ff8:	e8bd 83f0 	ldmia.w	sp!, {r4, r5, r6, r7, r8, r9, pc}
   82ffc:	9e00      	ldr	r6, [sp, #0]
   82ffe:	4630      	mov	r0, r6
   83000:	f000 fb36 	bl	83670 <malloc>
   83004:	4607      	mov	r7, r0
   83006:	b368      	cbz	r0, 83064 <setvbuf+0x12c>
   83008:	89a3      	ldrh	r3, [r4, #12]
   8300a:	f043 0380 	orr.w	r3, r3, #128	; 0x80
   8300e:	81a3      	strh	r3, [r4, #12]
   83010:	e7d0      	b.n	82fb4 <setvbuf+0x7c>
   83012:	2000      	movs	r0, #0
   83014:	f104 0243 	add.w	r2, r4, #67	; 0x43
   83018:	f043 0302 	orr.w	r3, r3, #2
   8301c:	2500      	movs	r5, #0
   8301e:	2101      	movs	r1, #1
   83020:	81a3      	strh	r3, [r4, #12]
   83022:	60a5      	str	r5, [r4, #8]
   83024:	6022      	str	r2, [r4, #0]
   83026:	6122      	str	r2, [r4, #16]
   83028:	6161      	str	r1, [r4, #20]
   8302a:	b003      	add	sp, #12
   8302c:	e8bd 83f0 	ldmia.w	sp!, {r4, r5, r6, r7, r8, r9, pc}
   83030:	60a0      	str	r0, [r4, #8]
   83032:	b003      	add	sp, #12
   83034:	e8bd 83f0 	ldmia.w	sp!, {r4, r5, r6, r7, r8, r9, pc}
   83038:	6921      	ldr	r1, [r4, #16]
   8303a:	4628      	mov	r0, r5
   8303c:	f000 f9d8 	bl	833f0 <_free_r>
   83040:	f9b4 300c 	ldrsh.w	r3, [r4, #12]
   83044:	e7a3      	b.n	82f8e <setvbuf+0x56>
   83046:	4628      	mov	r0, r5
   83048:	f000 f966 	bl	83318 <__sinit>
   8304c:	e781      	b.n	82f52 <setvbuf+0x1a>
   8304e:	60a6      	str	r6, [r4, #8]
   83050:	b003      	add	sp, #12
   83052:	e8bd 83f0 	ldmia.w	sp!, {r4, r5, r6, r7, r8, r9, pc}
   83056:	4628      	mov	r0, r5
   83058:	f000 f95e 	bl	83318 <__sinit>
   8305c:	e7ad      	b.n	82fba <setvbuf+0x82>
   8305e:	f04f 30ff 	mov.w	r0, #4294967295
   83062:	e7e2      	b.n	8302a <setvbuf+0xf2>
   83064:	f8dd 9000 	ldr.w	r9, [sp]
   83068:	45b1      	cmp	r9, r6
   8306a:	d006      	beq.n	8307a <setvbuf+0x142>
   8306c:	4648      	mov	r0, r9
   8306e:	f000 faff 	bl	83670 <malloc>
   83072:	4607      	mov	r7, r0
   83074:	b108      	cbz	r0, 8307a <setvbuf+0x142>
   83076:	464e      	mov	r6, r9
   83078:	e7c6      	b.n	83008 <setvbuf+0xd0>
   8307a:	f9b4 300c 	ldrsh.w	r3, [r4, #12]
   8307e:	f04f 30ff 	mov.w	r0, #4294967295
   83082:	e7c7      	b.n	83014 <setvbuf+0xdc>
   83084:	20070430 	.word	0x20070430

00083088 <register_fini>:
   83088:	4b02      	ldr	r3, [pc, #8]	; (83094 <register_fini+0xc>)
   8308a:	b113      	cbz	r3, 83092 <register_fini+0xa>
   8308c:	4802      	ldr	r0, [pc, #8]	; (83098 <register_fini+0x10>)
   8308e:	f000 b805 	b.w	8309c <atexit>
   83092:	4770      	bx	lr
   83094:	00000000 	.word	0x00000000
   83098:	0008332d 	.word	0x0008332d

0008309c <atexit>:
   8309c:	2300      	movs	r3, #0
   8309e:	4601      	mov	r1, r0
   830a0:	461a      	mov	r2, r3
   830a2:	4618      	mov	r0, r3
   830a4:	f000 be08 	b.w	83cb8 <__register_exitproc>

000830a8 <__sflush_r>:
   830a8:	f9b1 300c 	ldrsh.w	r3, [r1, #12]
   830ac:	e92d 41f0 	stmdb	sp!, {r4, r5, r6, r7, r8, lr}
   830b0:	b29a      	uxth	r2, r3
   830b2:	460d      	mov	r5, r1
   830b4:	0711      	lsls	r1, r2, #28
   830b6:	4680      	mov	r8, r0
   830b8:	d43c      	bmi.n	83134 <__sflush_r+0x8c>
   830ba:	686a      	ldr	r2, [r5, #4]
   830bc:	f443 6300 	orr.w	r3, r3, #2048	; 0x800
   830c0:	2a00      	cmp	r2, #0
   830c2:	81ab      	strh	r3, [r5, #12]
   830c4:	dd73      	ble.n	831ae <__sflush_r+0x106>
   830c6:	6aac      	ldr	r4, [r5, #40]	; 0x28
   830c8:	2c00      	cmp	r4, #0
   830ca:	d04b      	beq.n	83164 <__sflush_r+0xbc>
   830cc:	b29b      	uxth	r3, r3
   830ce:	f403 5280 	and.w	r2, r3, #4096	; 0x1000
   830d2:	2100      	movs	r1, #0
   830d4:	b292      	uxth	r2, r2
   830d6:	f8d8 6000 	ldr.w	r6, [r8]
   830da:	f8c8 1000 	str.w	r1, [r8]
   830de:	2a00      	cmp	r2, #0
   830e0:	d069      	beq.n	831b6 <__sflush_r+0x10e>
   830e2:	6d2a      	ldr	r2, [r5, #80]	; 0x50
   830e4:	075f      	lsls	r7, r3, #29
   830e6:	d505      	bpl.n	830f4 <__sflush_r+0x4c>
   830e8:	6869      	ldr	r1, [r5, #4]
   830ea:	6b2b      	ldr	r3, [r5, #48]	; 0x30
   830ec:	1a52      	subs	r2, r2, r1
   830ee:	b10b      	cbz	r3, 830f4 <__sflush_r+0x4c>
   830f0:	6beb      	ldr	r3, [r5, #60]	; 0x3c
   830f2:	1ad2      	subs	r2, r2, r3
   830f4:	2300      	movs	r3, #0
   830f6:	69e9      	ldr	r1, [r5, #28]
   830f8:	4640      	mov	r0, r8
   830fa:	47a0      	blx	r4
   830fc:	1c44      	adds	r4, r0, #1
   830fe:	d03c      	beq.n	8317a <__sflush_r+0xd2>
   83100:	f9b5 300c 	ldrsh.w	r3, [r5, #12]
   83104:	6929      	ldr	r1, [r5, #16]
   83106:	f423 6300 	bic.w	r3, r3, #2048	; 0x800
   8310a:	2200      	movs	r2, #0
   8310c:	81ab      	strh	r3, [r5, #12]
   8310e:	04db      	lsls	r3, r3, #19
   83110:	e885 0006 	stmia.w	r5, {r1, r2}
   83114:	d449      	bmi.n	831aa <__sflush_r+0x102>
   83116:	6b29      	ldr	r1, [r5, #48]	; 0x30
   83118:	f8c8 6000 	str.w	r6, [r8]
   8311c:	b311      	cbz	r1, 83164 <__sflush_r+0xbc>
   8311e:	f105 0340 	add.w	r3, r5, #64	; 0x40
   83122:	4299      	cmp	r1, r3
   83124:	d002      	beq.n	8312c <__sflush_r+0x84>
   83126:	4640      	mov	r0, r8
   83128:	f000 f962 	bl	833f0 <_free_r>
   8312c:	2000      	movs	r0, #0
   8312e:	6328      	str	r0, [r5, #48]	; 0x30
   83130:	e8bd 81f0 	ldmia.w	sp!, {r4, r5, r6, r7, r8, pc}
   83134:	692e      	ldr	r6, [r5, #16]
   83136:	b1ae      	cbz	r6, 83164 <__sflush_r+0xbc>
   83138:	0790      	lsls	r0, r2, #30
   8313a:	682c      	ldr	r4, [r5, #0]
   8313c:	bf0c      	ite	eq
   8313e:	696b      	ldreq	r3, [r5, #20]
   83140:	2300      	movne	r3, #0
   83142:	602e      	str	r6, [r5, #0]
   83144:	1ba4      	subs	r4, r4, r6
   83146:	60ab      	str	r3, [r5, #8]
   83148:	e00a      	b.n	83160 <__sflush_r+0xb8>
   8314a:	4623      	mov	r3, r4
   8314c:	4632      	mov	r2, r6
   8314e:	6a6f      	ldr	r7, [r5, #36]	; 0x24
   83150:	69e9      	ldr	r1, [r5, #28]
   83152:	4640      	mov	r0, r8
   83154:	47b8      	blx	r7
   83156:	2800      	cmp	r0, #0
   83158:	eba4 0400 	sub.w	r4, r4, r0
   8315c:	4406      	add	r6, r0
   8315e:	dd04      	ble.n	8316a <__sflush_r+0xc2>
   83160:	2c00      	cmp	r4, #0
   83162:	dcf2      	bgt.n	8314a <__sflush_r+0xa2>
   83164:	2000      	movs	r0, #0
   83166:	e8bd 81f0 	ldmia.w	sp!, {r4, r5, r6, r7, r8, pc}
   8316a:	89ab      	ldrh	r3, [r5, #12]
   8316c:	f04f 30ff 	mov.w	r0, #4294967295
   83170:	f043 0340 	orr.w	r3, r3, #64	; 0x40
   83174:	81ab      	strh	r3, [r5, #12]
   83176:	e8bd 81f0 	ldmia.w	sp!, {r4, r5, r6, r7, r8, pc}
   8317a:	f8d8 2000 	ldr.w	r2, [r8]
   8317e:	2a1d      	cmp	r2, #29
   83180:	d8f3      	bhi.n	8316a <__sflush_r+0xc2>
   83182:	4b1a      	ldr	r3, [pc, #104]	; (831ec <__sflush_r+0x144>)
   83184:	40d3      	lsrs	r3, r2
   83186:	f003 0301 	and.w	r3, r3, #1
   8318a:	f083 0401 	eor.w	r4, r3, #1
   8318e:	2b00      	cmp	r3, #0
   83190:	d0eb      	beq.n	8316a <__sflush_r+0xc2>
   83192:	f9b5 300c 	ldrsh.w	r3, [r5, #12]
   83196:	6929      	ldr	r1, [r5, #16]
   83198:	f423 6300 	bic.w	r3, r3, #2048	; 0x800
   8319c:	6029      	str	r1, [r5, #0]
   8319e:	04d9      	lsls	r1, r3, #19
   831a0:	606c      	str	r4, [r5, #4]
   831a2:	81ab      	strh	r3, [r5, #12]
   831a4:	d5b7      	bpl.n	83116 <__sflush_r+0x6e>
   831a6:	2a00      	cmp	r2, #0
   831a8:	d1b5      	bne.n	83116 <__sflush_r+0x6e>
   831aa:	6528      	str	r0, [r5, #80]	; 0x50
   831ac:	e7b3      	b.n	83116 <__sflush_r+0x6e>
   831ae:	6bea      	ldr	r2, [r5, #60]	; 0x3c
   831b0:	2a00      	cmp	r2, #0
   831b2:	dc88      	bgt.n	830c6 <__sflush_r+0x1e>
   831b4:	e7d6      	b.n	83164 <__sflush_r+0xbc>
   831b6:	2301      	movs	r3, #1
   831b8:	69e9      	ldr	r1, [r5, #28]
   831ba:	4640      	mov	r0, r8
   831bc:	47a0      	blx	r4
   831be:	1c43      	adds	r3, r0, #1
   831c0:	4602      	mov	r2, r0
   831c2:	d002      	beq.n	831ca <__sflush_r+0x122>
   831c4:	89ab      	ldrh	r3, [r5, #12]
   831c6:	6aac      	ldr	r4, [r5, #40]	; 0x28
   831c8:	e78c      	b.n	830e4 <__sflush_r+0x3c>
   831ca:	f8d8 3000 	ldr.w	r3, [r8]
   831ce:	2b00      	cmp	r3, #0
   831d0:	d0f8      	beq.n	831c4 <__sflush_r+0x11c>
   831d2:	2b1d      	cmp	r3, #29
   831d4:	d001      	beq.n	831da <__sflush_r+0x132>
   831d6:	2b16      	cmp	r3, #22
   831d8:	d102      	bne.n	831e0 <__sflush_r+0x138>
   831da:	f8c8 6000 	str.w	r6, [r8]
   831de:	e7c1      	b.n	83164 <__sflush_r+0xbc>
   831e0:	89ab      	ldrh	r3, [r5, #12]
   831e2:	f043 0340 	orr.w	r3, r3, #64	; 0x40
   831e6:	81ab      	strh	r3, [r5, #12]
   831e8:	e8bd 81f0 	ldmia.w	sp!, {r4, r5, r6, r7, r8, pc}
   831ec:	20400001 	.word	0x20400001

000831f0 <_fflush_r>:
   831f0:	b510      	push	{r4, lr}
   831f2:	4604      	mov	r4, r0
   831f4:	b082      	sub	sp, #8
   831f6:	b108      	cbz	r0, 831fc <_fflush_r+0xc>
   831f8:	6b83      	ldr	r3, [r0, #56]	; 0x38
   831fa:	b153      	cbz	r3, 83212 <_fflush_r+0x22>
   831fc:	f9b1 000c 	ldrsh.w	r0, [r1, #12]
   83200:	b908      	cbnz	r0, 83206 <_fflush_r+0x16>
   83202:	b002      	add	sp, #8
   83204:	bd10      	pop	{r4, pc}
   83206:	4620      	mov	r0, r4
   83208:	b002      	add	sp, #8
   8320a:	e8bd 4010 	ldmia.w	sp!, {r4, lr}
   8320e:	f7ff bf4b 	b.w	830a8 <__sflush_r>
   83212:	9101      	str	r1, [sp, #4]
   83214:	f000 f880 	bl	83318 <__sinit>
   83218:	9901      	ldr	r1, [sp, #4]
   8321a:	e7ef      	b.n	831fc <_fflush_r+0xc>

0008321c <_cleanup_r>:
   8321c:	4901      	ldr	r1, [pc, #4]	; (83224 <_cleanup_r+0x8>)
   8321e:	f000 b9cf 	b.w	835c0 <_fwalk_reent>
   83222:	bf00      	nop
   83224:	00083d81 	.word	0x00083d81

00083228 <__sinit.part.1>:
   83228:	e92d 4ff0 	stmdb	sp!, {r4, r5, r6, r7, r8, r9, sl, fp, lr}
   8322c:	4607      	mov	r7, r0
   8322e:	4835      	ldr	r0, [pc, #212]	; (83304 <__sinit.part.1+0xdc>)
   83230:	687d      	ldr	r5, [r7, #4]
   83232:	2400      	movs	r4, #0
   83234:	f507 723b 	add.w	r2, r7, #748	; 0x2ec
   83238:	2304      	movs	r3, #4
   8323a:	2103      	movs	r1, #3
   8323c:	63f8      	str	r0, [r7, #60]	; 0x3c
   8323e:	f8c7 12e4 	str.w	r1, [r7, #740]	; 0x2e4
   83242:	f8c7 22e8 	str.w	r2, [r7, #744]	; 0x2e8
   83246:	f8c7 42e0 	str.w	r4, [r7, #736]	; 0x2e0
   8324a:	b083      	sub	sp, #12
   8324c:	602c      	str	r4, [r5, #0]
   8324e:	606c      	str	r4, [r5, #4]
   83250:	60ac      	str	r4, [r5, #8]
   83252:	666c      	str	r4, [r5, #100]	; 0x64
   83254:	81ec      	strh	r4, [r5, #14]
   83256:	612c      	str	r4, [r5, #16]
   83258:	616c      	str	r4, [r5, #20]
   8325a:	61ac      	str	r4, [r5, #24]
   8325c:	81ab      	strh	r3, [r5, #12]
   8325e:	4621      	mov	r1, r4
   83260:	f105 005c 	add.w	r0, r5, #92	; 0x5c
   83264:	2208      	movs	r2, #8
   83266:	f7ff fe11 	bl	82e8c <memset>
   8326a:	f8df b09c 	ldr.w	fp, [pc, #156]	; 83308 <__sinit.part.1+0xe0>
   8326e:	68be      	ldr	r6, [r7, #8]
   83270:	f8df a098 	ldr.w	sl, [pc, #152]	; 8330c <__sinit.part.1+0xe4>
   83274:	f8df 9098 	ldr.w	r9, [pc, #152]	; 83310 <__sinit.part.1+0xe8>
   83278:	f8df 8098 	ldr.w	r8, [pc, #152]	; 83314 <__sinit.part.1+0xec>
   8327c:	2301      	movs	r3, #1
   8327e:	2209      	movs	r2, #9
   83280:	f8c5 b020 	str.w	fp, [r5, #32]
   83284:	f8c5 a024 	str.w	sl, [r5, #36]	; 0x24
   83288:	f8c5 9028 	str.w	r9, [r5, #40]	; 0x28
   8328c:	f8c5 802c 	str.w	r8, [r5, #44]	; 0x2c
   83290:	61ed      	str	r5, [r5, #28]
   83292:	4621      	mov	r1, r4
   83294:	81f3      	strh	r3, [r6, #14]
   83296:	81b2      	strh	r2, [r6, #12]
   83298:	f106 005c 	add.w	r0, r6, #92	; 0x5c
   8329c:	6034      	str	r4, [r6, #0]
   8329e:	6074      	str	r4, [r6, #4]
   832a0:	60b4      	str	r4, [r6, #8]
   832a2:	6674      	str	r4, [r6, #100]	; 0x64
   832a4:	6134      	str	r4, [r6, #16]
   832a6:	6174      	str	r4, [r6, #20]
   832a8:	61b4      	str	r4, [r6, #24]
   832aa:	2208      	movs	r2, #8
   832ac:	9301      	str	r3, [sp, #4]
   832ae:	f7ff fded 	bl	82e8c <memset>
   832b2:	68fd      	ldr	r5, [r7, #12]
   832b4:	2012      	movs	r0, #18
   832b6:	2202      	movs	r2, #2
   832b8:	61f6      	str	r6, [r6, #28]
   832ba:	f8c6 b020 	str.w	fp, [r6, #32]
   832be:	f8c6 a024 	str.w	sl, [r6, #36]	; 0x24
   832c2:	f8c6 9028 	str.w	r9, [r6, #40]	; 0x28
   832c6:	f8c6 802c 	str.w	r8, [r6, #44]	; 0x2c
   832ca:	4621      	mov	r1, r4
   832cc:	81a8      	strh	r0, [r5, #12]
   832ce:	81ea      	strh	r2, [r5, #14]
   832d0:	602c      	str	r4, [r5, #0]
   832d2:	606c      	str	r4, [r5, #4]
   832d4:	60ac      	str	r4, [r5, #8]
   832d6:	666c      	str	r4, [r5, #100]	; 0x64
   832d8:	612c      	str	r4, [r5, #16]
   832da:	616c      	str	r4, [r5, #20]
   832dc:	61ac      	str	r4, [r5, #24]
   832de:	f105 005c 	add.w	r0, r5, #92	; 0x5c
   832e2:	2208      	movs	r2, #8
   832e4:	f7ff fdd2 	bl	82e8c <memset>
   832e8:	9b01      	ldr	r3, [sp, #4]
   832ea:	61ed      	str	r5, [r5, #28]
   832ec:	f8c5 b020 	str.w	fp, [r5, #32]
   832f0:	f8c5 a024 	str.w	sl, [r5, #36]	; 0x24
   832f4:	f8c5 9028 	str.w	r9, [r5, #40]	; 0x28
   832f8:	f8c5 802c 	str.w	r8, [r5, #44]	; 0x2c
   832fc:	63bb      	str	r3, [r7, #56]	; 0x38
   832fe:	b003      	add	sp, #12
   83300:	e8bd 8ff0 	ldmia.w	sp!, {r4, r5, r6, r7, r8, r9, sl, fp, pc}
   83304:	0008321d 	.word	0x0008321d
   83308:	00083c05 	.word	0x00083c05
   8330c:	00083c29 	.word	0x00083c29
   83310:	00083c65 	.word	0x00083c65
   83314:	00083c85 	.word	0x00083c85

00083318 <__sinit>:
   83318:	6b83      	ldr	r3, [r0, #56]	; 0x38
   8331a:	b103      	cbz	r3, 8331e <__sinit+0x6>
   8331c:	4770      	bx	lr
   8331e:	f7ff bf83 	b.w	83228 <__sinit.part.1>
   83322:	bf00      	nop

00083324 <__sfp_lock_acquire>:
   83324:	4770      	bx	lr
   83326:	bf00      	nop

00083328 <__sfp_lock_release>:
   83328:	4770      	bx	lr
   8332a:	bf00      	nop

0008332c <__libc_fini_array>:
   8332c:	b538      	push	{r3, r4, r5, lr}
   8332e:	4d07      	ldr	r5, [pc, #28]	; (8334c <__libc_fini_array+0x20>)
   83330:	4c07      	ldr	r4, [pc, #28]	; (83350 <__libc_fini_array+0x24>)
   83332:	1b2c      	subs	r4, r5, r4
   83334:	10a4      	asrs	r4, r4, #2
   83336:	d005      	beq.n	83344 <__libc_fini_array+0x18>
   83338:	3c01      	subs	r4, #1
   8333a:	f855 3d04 	ldr.w	r3, [r5, #-4]!
   8333e:	4798      	blx	r3
   83340:	2c00      	cmp	r4, #0
   83342:	d1f9      	bne.n	83338 <__libc_fini_array+0xc>
   83344:	e8bd 4038 	ldmia.w	sp!, {r3, r4, r5, lr}
   83348:	f000 bdc0 	b.w	83ecc <_fini>
   8334c:	00083edc 	.word	0x00083edc
   83350:	00083ed8 	.word	0x00083ed8

00083354 <_malloc_trim_r>:
   83354:	b5f8      	push	{r3, r4, r5, r6, r7, lr}
   83356:	460c      	mov	r4, r1
   83358:	4f22      	ldr	r7, [pc, #136]	; (833e4 <_malloc_trim_r+0x90>)
   8335a:	4606      	mov	r6, r0
   8335c:	f000 fc3c 	bl	83bd8 <__malloc_lock>
   83360:	68bb      	ldr	r3, [r7, #8]
   83362:	685d      	ldr	r5, [r3, #4]
   83364:	f025 0503 	bic.w	r5, r5, #3
   83368:	1b29      	subs	r1, r5, r4
   8336a:	f601 71ef 	addw	r1, r1, #4079	; 0xfef
   8336e:	f421 617f 	bic.w	r1, r1, #4080	; 0xff0
   83372:	f021 010f 	bic.w	r1, r1, #15
   83376:	f5a1 5480 	sub.w	r4, r1, #4096	; 0x1000
   8337a:	f5b4 5f80 	cmp.w	r4, #4096	; 0x1000
   8337e:	db07      	blt.n	83390 <_malloc_trim_r+0x3c>
   83380:	2100      	movs	r1, #0
   83382:	4630      	mov	r0, r6
   83384:	f000 fc2c 	bl	83be0 <_sbrk_r>
   83388:	68bb      	ldr	r3, [r7, #8]
   8338a:	442b      	add	r3, r5
   8338c:	4298      	cmp	r0, r3
   8338e:	d004      	beq.n	8339a <_malloc_trim_r+0x46>
   83390:	4630      	mov	r0, r6
   83392:	f000 fc23 	bl	83bdc <__malloc_unlock>
   83396:	2000      	movs	r0, #0
   83398:	bdf8      	pop	{r3, r4, r5, r6, r7, pc}
   8339a:	4261      	negs	r1, r4
   8339c:	4630      	mov	r0, r6
   8339e:	f000 fc1f 	bl	83be0 <_sbrk_r>
   833a2:	3001      	adds	r0, #1
   833a4:	d00d      	beq.n	833c2 <_malloc_trim_r+0x6e>
   833a6:	4b10      	ldr	r3, [pc, #64]	; (833e8 <_malloc_trim_r+0x94>)
   833a8:	68ba      	ldr	r2, [r7, #8]
   833aa:	6819      	ldr	r1, [r3, #0]
   833ac:	1b2d      	subs	r5, r5, r4
   833ae:	f045 0501 	orr.w	r5, r5, #1
   833b2:	4630      	mov	r0, r6
   833b4:	1b09      	subs	r1, r1, r4
   833b6:	6055      	str	r5, [r2, #4]
   833b8:	6019      	str	r1, [r3, #0]
   833ba:	f000 fc0f 	bl	83bdc <__malloc_unlock>
   833be:	2001      	movs	r0, #1
   833c0:	bdf8      	pop	{r3, r4, r5, r6, r7, pc}
   833c2:	2100      	movs	r1, #0
   833c4:	4630      	mov	r0, r6
   833c6:	f000 fc0b 	bl	83be0 <_sbrk_r>
   833ca:	68ba      	ldr	r2, [r7, #8]
   833cc:	1a83      	subs	r3, r0, r2
   833ce:	2b0f      	cmp	r3, #15
   833d0:	ddde      	ble.n	83390 <_malloc_trim_r+0x3c>
   833d2:	4c06      	ldr	r4, [pc, #24]	; (833ec <_malloc_trim_r+0x98>)
   833d4:	4904      	ldr	r1, [pc, #16]	; (833e8 <_malloc_trim_r+0x94>)
   833d6:	6824      	ldr	r4, [r4, #0]
   833d8:	f043 0301 	orr.w	r3, r3, #1
   833dc:	1b00      	subs	r0, r0, r4
   833de:	6053      	str	r3, [r2, #4]
   833e0:	6008      	str	r0, [r1, #0]
   833e2:	e7d5      	b.n	83390 <_malloc_trim_r+0x3c>
   833e4:	20070434 	.word	0x20070434
   833e8:	20070ca0 	.word	0x20070ca0
   833ec:	20070840 	.word	0x20070840

000833f0 <_free_r>:
   833f0:	2900      	cmp	r1, #0
   833f2:	d045      	beq.n	83480 <_free_r+0x90>
   833f4:	e92d 41f0 	stmdb	sp!, {r4, r5, r6, r7, r8, lr}
   833f8:	460d      	mov	r5, r1
   833fa:	4680      	mov	r8, r0
   833fc:	f000 fbec 	bl	83bd8 <__malloc_lock>
   83400:	f855 7c04 	ldr.w	r7, [r5, #-4]
   83404:	496a      	ldr	r1, [pc, #424]	; (835b0 <_free_r+0x1c0>)
   83406:	f1a5 0408 	sub.w	r4, r5, #8
   8340a:	f027 0301 	bic.w	r3, r7, #1
   8340e:	18e2      	adds	r2, r4, r3
   83410:	688e      	ldr	r6, [r1, #8]
   83412:	6850      	ldr	r0, [r2, #4]
   83414:	42b2      	cmp	r2, r6
   83416:	f020 0003 	bic.w	r0, r0, #3
   8341a:	d062      	beq.n	834e2 <_free_r+0xf2>
   8341c:	07fe      	lsls	r6, r7, #31
   8341e:	6050      	str	r0, [r2, #4]
   83420:	d40b      	bmi.n	8343a <_free_r+0x4a>
   83422:	f855 7c08 	ldr.w	r7, [r5, #-8]
   83426:	f101 0e08 	add.w	lr, r1, #8
   8342a:	1be4      	subs	r4, r4, r7
   8342c:	68a5      	ldr	r5, [r4, #8]
   8342e:	443b      	add	r3, r7
   83430:	4575      	cmp	r5, lr
   83432:	d06f      	beq.n	83514 <_free_r+0x124>
   83434:	68e7      	ldr	r7, [r4, #12]
   83436:	60ef      	str	r7, [r5, #12]
   83438:	60bd      	str	r5, [r7, #8]
   8343a:	1815      	adds	r5, r2, r0
   8343c:	686d      	ldr	r5, [r5, #4]
   8343e:	07ed      	lsls	r5, r5, #31
   83440:	d542      	bpl.n	834c8 <_free_r+0xd8>
   83442:	f043 0201 	orr.w	r2, r3, #1
   83446:	6062      	str	r2, [r4, #4]
   83448:	50e3      	str	r3, [r4, r3]
   8344a:	f5b3 7f00 	cmp.w	r3, #512	; 0x200
   8344e:	d218      	bcs.n	83482 <_free_r+0x92>
   83450:	08db      	lsrs	r3, r3, #3
   83452:	6848      	ldr	r0, [r1, #4]
   83454:	109d      	asrs	r5, r3, #2
   83456:	2201      	movs	r2, #1
   83458:	3301      	adds	r3, #1
   8345a:	f851 7033 	ldr.w	r7, [r1, r3, lsl #3]
   8345e:	fa02 f505 	lsl.w	r5, r2, r5
   83462:	eb01 02c3 	add.w	r2, r1, r3, lsl #3
   83466:	4328      	orrs	r0, r5
   83468:	3a08      	subs	r2, #8
   8346a:	60e2      	str	r2, [r4, #12]
   8346c:	60a7      	str	r7, [r4, #8]
   8346e:	6048      	str	r0, [r1, #4]
   83470:	f841 4033 	str.w	r4, [r1, r3, lsl #3]
   83474:	60fc      	str	r4, [r7, #12]
   83476:	4640      	mov	r0, r8
   83478:	e8bd 41f0 	ldmia.w	sp!, {r4, r5, r6, r7, r8, lr}
   8347c:	f000 bbae 	b.w	83bdc <__malloc_unlock>
   83480:	4770      	bx	lr
   83482:	0a5a      	lsrs	r2, r3, #9
   83484:	2a04      	cmp	r2, #4
   83486:	d853      	bhi.n	83530 <_free_r+0x140>
   83488:	099a      	lsrs	r2, r3, #6
   8348a:	f102 0739 	add.w	r7, r2, #57	; 0x39
   8348e:	007f      	lsls	r7, r7, #1
   83490:	f102 0538 	add.w	r5, r2, #56	; 0x38
   83494:	eb01 0087 	add.w	r0, r1, r7, lsl #2
   83498:	f851 2027 	ldr.w	r2, [r1, r7, lsl #2]
   8349c:	3808      	subs	r0, #8
   8349e:	4290      	cmp	r0, r2
   834a0:	4943      	ldr	r1, [pc, #268]	; (835b0 <_free_r+0x1c0>)
   834a2:	d04d      	beq.n	83540 <_free_r+0x150>
   834a4:	6851      	ldr	r1, [r2, #4]
   834a6:	f021 0103 	bic.w	r1, r1, #3
   834aa:	428b      	cmp	r3, r1
   834ac:	d202      	bcs.n	834b4 <_free_r+0xc4>
   834ae:	6892      	ldr	r2, [r2, #8]
   834b0:	4290      	cmp	r0, r2
   834b2:	d1f7      	bne.n	834a4 <_free_r+0xb4>
   834b4:	68d0      	ldr	r0, [r2, #12]
   834b6:	60e0      	str	r0, [r4, #12]
   834b8:	60a2      	str	r2, [r4, #8]
   834ba:	6084      	str	r4, [r0, #8]
   834bc:	60d4      	str	r4, [r2, #12]
   834be:	4640      	mov	r0, r8
   834c0:	e8bd 41f0 	ldmia.w	sp!, {r4, r5, r6, r7, r8, lr}
   834c4:	f000 bb8a 	b.w	83bdc <__malloc_unlock>
   834c8:	6895      	ldr	r5, [r2, #8]
   834ca:	4f3a      	ldr	r7, [pc, #232]	; (835b4 <_free_r+0x1c4>)
   834cc:	4403      	add	r3, r0
   834ce:	42bd      	cmp	r5, r7
   834d0:	d03f      	beq.n	83552 <_free_r+0x162>
   834d2:	68d0      	ldr	r0, [r2, #12]
   834d4:	f043 0201 	orr.w	r2, r3, #1
   834d8:	60e8      	str	r0, [r5, #12]
   834da:	6085      	str	r5, [r0, #8]
   834dc:	6062      	str	r2, [r4, #4]
   834de:	50e3      	str	r3, [r4, r3]
   834e0:	e7b3      	b.n	8344a <_free_r+0x5a>
   834e2:	07ff      	lsls	r7, r7, #31
   834e4:	4403      	add	r3, r0
   834e6:	d407      	bmi.n	834f8 <_free_r+0x108>
   834e8:	f855 5c08 	ldr.w	r5, [r5, #-8]
   834ec:	1b64      	subs	r4, r4, r5
   834ee:	68e2      	ldr	r2, [r4, #12]
   834f0:	68a0      	ldr	r0, [r4, #8]
   834f2:	442b      	add	r3, r5
   834f4:	60c2      	str	r2, [r0, #12]
   834f6:	6090      	str	r0, [r2, #8]
   834f8:	4a2f      	ldr	r2, [pc, #188]	; (835b8 <_free_r+0x1c8>)
   834fa:	f043 0001 	orr.w	r0, r3, #1
   834fe:	6812      	ldr	r2, [r2, #0]
   83500:	6060      	str	r0, [r4, #4]
   83502:	4293      	cmp	r3, r2
   83504:	608c      	str	r4, [r1, #8]
   83506:	d3b6      	bcc.n	83476 <_free_r+0x86>
   83508:	4b2c      	ldr	r3, [pc, #176]	; (835bc <_free_r+0x1cc>)
   8350a:	4640      	mov	r0, r8
   8350c:	6819      	ldr	r1, [r3, #0]
   8350e:	f7ff ff21 	bl	83354 <_malloc_trim_r>
   83512:	e7b0      	b.n	83476 <_free_r+0x86>
   83514:	1811      	adds	r1, r2, r0
   83516:	6849      	ldr	r1, [r1, #4]
   83518:	07c9      	lsls	r1, r1, #31
   8351a:	d444      	bmi.n	835a6 <_free_r+0x1b6>
   8351c:	6891      	ldr	r1, [r2, #8]
   8351e:	4403      	add	r3, r0
   83520:	68d2      	ldr	r2, [r2, #12]
   83522:	f043 0001 	orr.w	r0, r3, #1
   83526:	60ca      	str	r2, [r1, #12]
   83528:	6091      	str	r1, [r2, #8]
   8352a:	6060      	str	r0, [r4, #4]
   8352c:	50e3      	str	r3, [r4, r3]
   8352e:	e7a2      	b.n	83476 <_free_r+0x86>
   83530:	2a14      	cmp	r2, #20
   83532:	d817      	bhi.n	83564 <_free_r+0x174>
   83534:	f102 075c 	add.w	r7, r2, #92	; 0x5c
   83538:	007f      	lsls	r7, r7, #1
   8353a:	f102 055b 	add.w	r5, r2, #91	; 0x5b
   8353e:	e7a9      	b.n	83494 <_free_r+0xa4>
   83540:	10aa      	asrs	r2, r5, #2
   83542:	684b      	ldr	r3, [r1, #4]
   83544:	2501      	movs	r5, #1
   83546:	fa05 f202 	lsl.w	r2, r5, r2
   8354a:	4313      	orrs	r3, r2
   8354c:	604b      	str	r3, [r1, #4]
   8354e:	4602      	mov	r2, r0
   83550:	e7b1      	b.n	834b6 <_free_r+0xc6>
   83552:	f043 0201 	orr.w	r2, r3, #1
   83556:	614c      	str	r4, [r1, #20]
   83558:	610c      	str	r4, [r1, #16]
   8355a:	60e5      	str	r5, [r4, #12]
   8355c:	60a5      	str	r5, [r4, #8]
   8355e:	6062      	str	r2, [r4, #4]
   83560:	50e3      	str	r3, [r4, r3]
   83562:	e788      	b.n	83476 <_free_r+0x86>
   83564:	2a54      	cmp	r2, #84	; 0x54
   83566:	d806      	bhi.n	83576 <_free_r+0x186>
   83568:	0b1a      	lsrs	r2, r3, #12
   8356a:	f102 076f 	add.w	r7, r2, #111	; 0x6f
   8356e:	007f      	lsls	r7, r7, #1
   83570:	f102 056e 	add.w	r5, r2, #110	; 0x6e
   83574:	e78e      	b.n	83494 <_free_r+0xa4>
   83576:	f5b2 7faa 	cmp.w	r2, #340	; 0x154
   8357a:	d806      	bhi.n	8358a <_free_r+0x19a>
   8357c:	0bda      	lsrs	r2, r3, #15
   8357e:	f102 0778 	add.w	r7, r2, #120	; 0x78
   83582:	007f      	lsls	r7, r7, #1
   83584:	f102 0577 	add.w	r5, r2, #119	; 0x77
   83588:	e784      	b.n	83494 <_free_r+0xa4>
   8358a:	f240 5054 	movw	r0, #1364	; 0x554
   8358e:	4282      	cmp	r2, r0
   83590:	d806      	bhi.n	835a0 <_free_r+0x1b0>
   83592:	0c9a      	lsrs	r2, r3, #18
   83594:	f102 077d 	add.w	r7, r2, #125	; 0x7d
   83598:	007f      	lsls	r7, r7, #1
   8359a:	f102 057c 	add.w	r5, r2, #124	; 0x7c
   8359e:	e779      	b.n	83494 <_free_r+0xa4>
   835a0:	27fe      	movs	r7, #254	; 0xfe
   835a2:	257e      	movs	r5, #126	; 0x7e
   835a4:	e776      	b.n	83494 <_free_r+0xa4>
   835a6:	f043 0201 	orr.w	r2, r3, #1
   835aa:	6062      	str	r2, [r4, #4]
   835ac:	50e3      	str	r3, [r4, r3]
   835ae:	e762      	b.n	83476 <_free_r+0x86>
   835b0:	20070434 	.word	0x20070434
   835b4:	2007043c 	.word	0x2007043c
   835b8:	2007083c 	.word	0x2007083c
   835bc:	20070c9c 	.word	0x20070c9c

000835c0 <_fwalk_reent>:
   835c0:	e92d 43f8 	stmdb	sp!, {r3, r4, r5, r6, r7, r8, r9, lr}
   835c4:	f510 7638 	adds.w	r6, r0, #736	; 0x2e0
   835c8:	d01e      	beq.n	83608 <_fwalk_reent+0x48>
   835ca:	4688      	mov	r8, r1
   835cc:	4607      	mov	r7, r0
   835ce:	f04f 0900 	mov.w	r9, #0
   835d2:	6875      	ldr	r5, [r6, #4]
   835d4:	68b4      	ldr	r4, [r6, #8]
   835d6:	3d01      	subs	r5, #1
   835d8:	d410      	bmi.n	835fc <_fwalk_reent+0x3c>
   835da:	89a3      	ldrh	r3, [r4, #12]
   835dc:	3d01      	subs	r5, #1
   835de:	2b01      	cmp	r3, #1
   835e0:	d908      	bls.n	835f4 <_fwalk_reent+0x34>
   835e2:	f9b4 300e 	ldrsh.w	r3, [r4, #14]
   835e6:	3301      	adds	r3, #1
   835e8:	d004      	beq.n	835f4 <_fwalk_reent+0x34>
   835ea:	4621      	mov	r1, r4
   835ec:	4638      	mov	r0, r7
   835ee:	47c0      	blx	r8
   835f0:	ea49 0900 	orr.w	r9, r9, r0
   835f4:	1c6b      	adds	r3, r5, #1
   835f6:	f104 0468 	add.w	r4, r4, #104	; 0x68
   835fa:	d1ee      	bne.n	835da <_fwalk_reent+0x1a>
   835fc:	6836      	ldr	r6, [r6, #0]
   835fe:	2e00      	cmp	r6, #0
   83600:	d1e7      	bne.n	835d2 <_fwalk_reent+0x12>
   83602:	4648      	mov	r0, r9
   83604:	e8bd 83f8 	ldmia.w	sp!, {r3, r4, r5, r6, r7, r8, r9, pc}
   83608:	46b1      	mov	r9, r6
   8360a:	4648      	mov	r0, r9
   8360c:	e8bd 83f8 	ldmia.w	sp!, {r3, r4, r5, r6, r7, r8, r9, pc}

00083610 <__swhatbuf_r>:
   83610:	b570      	push	{r4, r5, r6, lr}
   83612:	460e      	mov	r6, r1
   83614:	f9b1 100e 	ldrsh.w	r1, [r1, #14]
   83618:	b090      	sub	sp, #64	; 0x40
   8361a:	2900      	cmp	r1, #0
   8361c:	4614      	mov	r4, r2
   8361e:	461d      	mov	r5, r3
   83620:	db14      	blt.n	8364c <__swhatbuf_r+0x3c>
   83622:	aa01      	add	r2, sp, #4
   83624:	f000 fbee 	bl	83e04 <_fstat_r>
   83628:	2800      	cmp	r0, #0
   8362a:	db0f      	blt.n	8364c <__swhatbuf_r+0x3c>
   8362c:	9a02      	ldr	r2, [sp, #8]
   8362e:	f44f 6380 	mov.w	r3, #1024	; 0x400
   83632:	f402 4270 	and.w	r2, r2, #61440	; 0xf000
   83636:	f5a2 5200 	sub.w	r2, r2, #8192	; 0x2000
   8363a:	fab2 f282 	clz	r2, r2
   8363e:	f44f 6000 	mov.w	r0, #2048	; 0x800
   83642:	0952      	lsrs	r2, r2, #5
   83644:	602a      	str	r2, [r5, #0]
   83646:	6023      	str	r3, [r4, #0]
   83648:	b010      	add	sp, #64	; 0x40
   8364a:	bd70      	pop	{r4, r5, r6, pc}
   8364c:	89b2      	ldrh	r2, [r6, #12]
   8364e:	2000      	movs	r0, #0
   83650:	f002 0280 	and.w	r2, r2, #128	; 0x80
   83654:	b292      	uxth	r2, r2
   83656:	6028      	str	r0, [r5, #0]
   83658:	b11a      	cbz	r2, 83662 <__swhatbuf_r+0x52>
   8365a:	2340      	movs	r3, #64	; 0x40
   8365c:	6023      	str	r3, [r4, #0]
   8365e:	b010      	add	sp, #64	; 0x40
   83660:	bd70      	pop	{r4, r5, r6, pc}
   83662:	4610      	mov	r0, r2
   83664:	f44f 6380 	mov.w	r3, #1024	; 0x400
   83668:	6023      	str	r3, [r4, #0]
   8366a:	b010      	add	sp, #64	; 0x40
   8366c:	bd70      	pop	{r4, r5, r6, pc}
   8366e:	bf00      	nop

00083670 <malloc>:
   83670:	4b02      	ldr	r3, [pc, #8]	; (8367c <malloc+0xc>)
   83672:	4601      	mov	r1, r0
   83674:	6818      	ldr	r0, [r3, #0]
   83676:	f000 b803 	b.w	83680 <_malloc_r>
   8367a:	bf00      	nop
   8367c:	20070430 	.word	0x20070430

00083680 <_malloc_r>:
   83680:	e92d 4ff0 	stmdb	sp!, {r4, r5, r6, r7, r8, r9, sl, fp, lr}
   83684:	f101 050b 	add.w	r5, r1, #11
   83688:	2d16      	cmp	r5, #22
   8368a:	b083      	sub	sp, #12
   8368c:	4606      	mov	r6, r0
   8368e:	f240 80a0 	bls.w	837d2 <_malloc_r+0x152>
   83692:	f035 0507 	bics.w	r5, r5, #7
   83696:	f100 80c0 	bmi.w	8381a <_malloc_r+0x19a>
   8369a:	42a9      	cmp	r1, r5
   8369c:	f200 80bd 	bhi.w	8381a <_malloc_r+0x19a>
   836a0:	f000 fa9a 	bl	83bd8 <__malloc_lock>
   836a4:	f5b5 7ffc 	cmp.w	r5, #504	; 0x1f8
   836a8:	f0c0 8290 	bcc.w	83bcc <_malloc_r+0x54c>
   836ac:	0a6b      	lsrs	r3, r5, #9
   836ae:	f000 80bb 	beq.w	83828 <_malloc_r+0x1a8>
   836b2:	2b04      	cmp	r3, #4
   836b4:	f200 8177 	bhi.w	839a6 <_malloc_r+0x326>
   836b8:	09a8      	lsrs	r0, r5, #6
   836ba:	f100 0e39 	add.w	lr, r0, #57	; 0x39
   836be:	ea4f 014e 	mov.w	r1, lr, lsl #1
   836c2:	3038      	adds	r0, #56	; 0x38
   836c4:	4fbe      	ldr	r7, [pc, #760]	; (839c0 <_malloc_r+0x340>)
   836c6:	eb07 0181 	add.w	r1, r7, r1, lsl #2
   836ca:	684c      	ldr	r4, [r1, #4]
   836cc:	3908      	subs	r1, #8
   836ce:	42a1      	cmp	r1, r4
   836d0:	d107      	bne.n	836e2 <_malloc_r+0x62>
   836d2:	e0ae      	b.n	83832 <_malloc_r+0x1b2>
   836d4:	2a00      	cmp	r2, #0
   836d6:	f280 80ae 	bge.w	83836 <_malloc_r+0x1b6>
   836da:	68e4      	ldr	r4, [r4, #12]
   836dc:	42a1      	cmp	r1, r4
   836de:	f000 80a8 	beq.w	83832 <_malloc_r+0x1b2>
   836e2:	6863      	ldr	r3, [r4, #4]
   836e4:	f023 0303 	bic.w	r3, r3, #3
   836e8:	1b5a      	subs	r2, r3, r5
   836ea:	2a0f      	cmp	r2, #15
   836ec:	ddf2      	ble.n	836d4 <_malloc_r+0x54>
   836ee:	49b4      	ldr	r1, [pc, #720]	; (839c0 <_malloc_r+0x340>)
   836f0:	693c      	ldr	r4, [r7, #16]
   836f2:	f101 0e08 	add.w	lr, r1, #8
   836f6:	4574      	cmp	r4, lr
   836f8:	f000 81a8 	beq.w	83a4c <_malloc_r+0x3cc>
   836fc:	6863      	ldr	r3, [r4, #4]
   836fe:	f023 0303 	bic.w	r3, r3, #3
   83702:	1b5a      	subs	r2, r3, r5
   83704:	2a0f      	cmp	r2, #15
   83706:	f300 818e 	bgt.w	83a26 <_malloc_r+0x3a6>
   8370a:	2a00      	cmp	r2, #0
   8370c:	f8c1 e014 	str.w	lr, [r1, #20]
   83710:	f8c1 e010 	str.w	lr, [r1, #16]
   83714:	f280 8093 	bge.w	8383e <_malloc_r+0x1be>
   83718:	f5b3 7f00 	cmp.w	r3, #512	; 0x200
   8371c:	f080 815c 	bcs.w	839d8 <_malloc_r+0x358>
   83720:	08db      	lsrs	r3, r3, #3
   83722:	684a      	ldr	r2, [r1, #4]
   83724:	ea4f 09a3 	mov.w	r9, r3, asr #2
   83728:	f04f 0c01 	mov.w	ip, #1
   8372c:	3301      	adds	r3, #1
   8372e:	f851 8033 	ldr.w	r8, [r1, r3, lsl #3]
   83732:	fa0c f909 	lsl.w	r9, ip, r9
   83736:	eb01 0cc3 	add.w	ip, r1, r3, lsl #3
   8373a:	ea49 0202 	orr.w	r2, r9, r2
   8373e:	f1ac 0c08 	sub.w	ip, ip, #8
   83742:	f8c4 c00c 	str.w	ip, [r4, #12]
   83746:	f8c4 8008 	str.w	r8, [r4, #8]
   8374a:	604a      	str	r2, [r1, #4]
   8374c:	f841 4033 	str.w	r4, [r1, r3, lsl #3]
   83750:	f8c8 400c 	str.w	r4, [r8, #12]
   83754:	1083      	asrs	r3, r0, #2
   83756:	2401      	movs	r4, #1
   83758:	409c      	lsls	r4, r3
   8375a:	4294      	cmp	r4, r2
   8375c:	d87c      	bhi.n	83858 <_malloc_r+0x1d8>
   8375e:	4214      	tst	r4, r2
   83760:	d106      	bne.n	83770 <_malloc_r+0xf0>
   83762:	f020 0003 	bic.w	r0, r0, #3
   83766:	0064      	lsls	r4, r4, #1
   83768:	4214      	tst	r4, r2
   8376a:	f100 0004 	add.w	r0, r0, #4
   8376e:	d0fa      	beq.n	83766 <_malloc_r+0xe6>
   83770:	eb07 09c0 	add.w	r9, r7, r0, lsl #3
   83774:	46cc      	mov	ip, r9
   83776:	4680      	mov	r8, r0
   83778:	f8dc 100c 	ldr.w	r1, [ip, #12]
   8377c:	458c      	cmp	ip, r1
   8377e:	d107      	bne.n	83790 <_malloc_r+0x110>
   83780:	e166      	b.n	83a50 <_malloc_r+0x3d0>
   83782:	2a00      	cmp	r2, #0
   83784:	f280 8174 	bge.w	83a70 <_malloc_r+0x3f0>
   83788:	68c9      	ldr	r1, [r1, #12]
   8378a:	458c      	cmp	ip, r1
   8378c:	f000 8160 	beq.w	83a50 <_malloc_r+0x3d0>
   83790:	684b      	ldr	r3, [r1, #4]
   83792:	f023 0303 	bic.w	r3, r3, #3
   83796:	1b5a      	subs	r2, r3, r5
   83798:	2a0f      	cmp	r2, #15
   8379a:	ddf2      	ble.n	83782 <_malloc_r+0x102>
   8379c:	460c      	mov	r4, r1
   8379e:	68cb      	ldr	r3, [r1, #12]
   837a0:	f854 cf08 	ldr.w	ip, [r4, #8]!
   837a4:	f045 0801 	orr.w	r8, r5, #1
   837a8:	f8c1 8004 	str.w	r8, [r1, #4]
   837ac:	440d      	add	r5, r1
   837ae:	f042 0101 	orr.w	r1, r2, #1
   837b2:	f8cc 300c 	str.w	r3, [ip, #12]
   837b6:	4630      	mov	r0, r6
   837b8:	f8c3 c008 	str.w	ip, [r3, #8]
   837bc:	617d      	str	r5, [r7, #20]
   837be:	613d      	str	r5, [r7, #16]
   837c0:	f8c5 e00c 	str.w	lr, [r5, #12]
   837c4:	f8c5 e008 	str.w	lr, [r5, #8]
   837c8:	6069      	str	r1, [r5, #4]
   837ca:	50aa      	str	r2, [r5, r2]
   837cc:	f000 fa06 	bl	83bdc <__malloc_unlock>
   837d0:	e01f      	b.n	83812 <_malloc_r+0x192>
   837d2:	2910      	cmp	r1, #16
   837d4:	d821      	bhi.n	8381a <_malloc_r+0x19a>
   837d6:	f000 f9ff 	bl	83bd8 <__malloc_lock>
   837da:	2510      	movs	r5, #16
   837dc:	2306      	movs	r3, #6
   837de:	2002      	movs	r0, #2
   837e0:	4f77      	ldr	r7, [pc, #476]	; (839c0 <_malloc_r+0x340>)
   837e2:	eb07 0383 	add.w	r3, r7, r3, lsl #2
   837e6:	685c      	ldr	r4, [r3, #4]
   837e8:	f1a3 0208 	sub.w	r2, r3, #8
   837ec:	4294      	cmp	r4, r2
   837ee:	f000 8138 	beq.w	83a62 <_malloc_r+0x3e2>
   837f2:	6863      	ldr	r3, [r4, #4]
   837f4:	68e1      	ldr	r1, [r4, #12]
   837f6:	f023 0303 	bic.w	r3, r3, #3
   837fa:	4423      	add	r3, r4
   837fc:	685a      	ldr	r2, [r3, #4]
   837fe:	68a5      	ldr	r5, [r4, #8]
   83800:	f042 0201 	orr.w	r2, r2, #1
   83804:	60e9      	str	r1, [r5, #12]
   83806:	4630      	mov	r0, r6
   83808:	608d      	str	r5, [r1, #8]
   8380a:	605a      	str	r2, [r3, #4]
   8380c:	f000 f9e6 	bl	83bdc <__malloc_unlock>
   83810:	3408      	adds	r4, #8
   83812:	4620      	mov	r0, r4
   83814:	b003      	add	sp, #12
   83816:	e8bd 8ff0 	ldmia.w	sp!, {r4, r5, r6, r7, r8, r9, sl, fp, pc}
   8381a:	2400      	movs	r4, #0
   8381c:	4620      	mov	r0, r4
   8381e:	230c      	movs	r3, #12
   83820:	6033      	str	r3, [r6, #0]
   83822:	b003      	add	sp, #12
   83824:	e8bd 8ff0 	ldmia.w	sp!, {r4, r5, r6, r7, r8, r9, sl, fp, pc}
   83828:	2180      	movs	r1, #128	; 0x80
   8382a:	f04f 0e40 	mov.w	lr, #64	; 0x40
   8382e:	203f      	movs	r0, #63	; 0x3f
   83830:	e748      	b.n	836c4 <_malloc_r+0x44>
   83832:	4670      	mov	r0, lr
   83834:	e75b      	b.n	836ee <_malloc_r+0x6e>
   83836:	4423      	add	r3, r4
   83838:	685a      	ldr	r2, [r3, #4]
   8383a:	68e1      	ldr	r1, [r4, #12]
   8383c:	e7df      	b.n	837fe <_malloc_r+0x17e>
   8383e:	4423      	add	r3, r4
   83840:	685a      	ldr	r2, [r3, #4]
   83842:	4630      	mov	r0, r6
   83844:	f042 0201 	orr.w	r2, r2, #1
   83848:	605a      	str	r2, [r3, #4]
   8384a:	3408      	adds	r4, #8
   8384c:	f000 f9c6 	bl	83bdc <__malloc_unlock>
   83850:	4620      	mov	r0, r4
   83852:	b003      	add	sp, #12
   83854:	e8bd 8ff0 	ldmia.w	sp!, {r4, r5, r6, r7, r8, r9, sl, fp, pc}
   83858:	68bc      	ldr	r4, [r7, #8]
   8385a:	6863      	ldr	r3, [r4, #4]
   8385c:	f023 0803 	bic.w	r8, r3, #3
   83860:	45a8      	cmp	r8, r5
   83862:	d304      	bcc.n	8386e <_malloc_r+0x1ee>
   83864:	ebc5 0308 	rsb	r3, r5, r8
   83868:	2b0f      	cmp	r3, #15
   8386a:	f300 808c 	bgt.w	83986 <_malloc_r+0x306>
   8386e:	4b55      	ldr	r3, [pc, #340]	; (839c4 <_malloc_r+0x344>)
   83870:	f8df 9160 	ldr.w	r9, [pc, #352]	; 839d4 <_malloc_r+0x354>
   83874:	681a      	ldr	r2, [r3, #0]
   83876:	f8d9 3000 	ldr.w	r3, [r9]
   8387a:	442a      	add	r2, r5
   8387c:	3301      	adds	r3, #1
   8387e:	eb04 0a08 	add.w	sl, r4, r8
   83882:	f000 8160 	beq.w	83b46 <_malloc_r+0x4c6>
   83886:	f502 5280 	add.w	r2, r2, #4096	; 0x1000
   8388a:	320f      	adds	r2, #15
   8388c:	f422 627f 	bic.w	r2, r2, #4080	; 0xff0
   83890:	f022 020f 	bic.w	r2, r2, #15
   83894:	4611      	mov	r1, r2
   83896:	4630      	mov	r0, r6
   83898:	9201      	str	r2, [sp, #4]
   8389a:	f000 f9a1 	bl	83be0 <_sbrk_r>
   8389e:	f1b0 3fff 	cmp.w	r0, #4294967295
   838a2:	4683      	mov	fp, r0
   838a4:	9a01      	ldr	r2, [sp, #4]
   838a6:	f000 8158 	beq.w	83b5a <_malloc_r+0x4da>
   838aa:	4582      	cmp	sl, r0
   838ac:	f200 80fc 	bhi.w	83aa8 <_malloc_r+0x428>
   838b0:	4b45      	ldr	r3, [pc, #276]	; (839c8 <_malloc_r+0x348>)
   838b2:	45da      	cmp	sl, fp
   838b4:	6819      	ldr	r1, [r3, #0]
   838b6:	4411      	add	r1, r2
   838b8:	6019      	str	r1, [r3, #0]
   838ba:	f000 8153 	beq.w	83b64 <_malloc_r+0x4e4>
   838be:	f8d9 0000 	ldr.w	r0, [r9]
   838c2:	f8df e110 	ldr.w	lr, [pc, #272]	; 839d4 <_malloc_r+0x354>
   838c6:	3001      	adds	r0, #1
   838c8:	bf1b      	ittet	ne
   838ca:	ebca 0a0b 	rsbne	sl, sl, fp
   838ce:	4451      	addne	r1, sl
   838d0:	f8ce b000 	streq.w	fp, [lr]
   838d4:	6019      	strne	r1, [r3, #0]
   838d6:	f01b 0107 	ands.w	r1, fp, #7
   838da:	f000 8117 	beq.w	83b0c <_malloc_r+0x48c>
   838de:	f1c1 0008 	rsb	r0, r1, #8
   838e2:	f5c1 5180 	rsb	r1, r1, #4096	; 0x1000
   838e6:	4483      	add	fp, r0
   838e8:	3108      	adds	r1, #8
   838ea:	445a      	add	r2, fp
   838ec:	f3c2 020b 	ubfx	r2, r2, #0, #12
   838f0:	ebc2 0901 	rsb	r9, r2, r1
   838f4:	4649      	mov	r1, r9
   838f6:	4630      	mov	r0, r6
   838f8:	9301      	str	r3, [sp, #4]
   838fa:	f000 f971 	bl	83be0 <_sbrk_r>
   838fe:	1c43      	adds	r3, r0, #1
   83900:	9b01      	ldr	r3, [sp, #4]
   83902:	f000 813f 	beq.w	83b84 <_malloc_r+0x504>
   83906:	ebcb 0200 	rsb	r2, fp, r0
   8390a:	444a      	add	r2, r9
   8390c:	f042 0201 	orr.w	r2, r2, #1
   83910:	6819      	ldr	r1, [r3, #0]
   83912:	42bc      	cmp	r4, r7
   83914:	4449      	add	r1, r9
   83916:	f8c7 b008 	str.w	fp, [r7, #8]
   8391a:	6019      	str	r1, [r3, #0]
   8391c:	f8cb 2004 	str.w	r2, [fp, #4]
   83920:	f8df 90a4 	ldr.w	r9, [pc, #164]	; 839c8 <_malloc_r+0x348>
   83924:	d016      	beq.n	83954 <_malloc_r+0x2d4>
   83926:	f1b8 0f0f 	cmp.w	r8, #15
   8392a:	f240 80fd 	bls.w	83b28 <_malloc_r+0x4a8>
   8392e:	6862      	ldr	r2, [r4, #4]
   83930:	f1a8 030c 	sub.w	r3, r8, #12
   83934:	f023 0307 	bic.w	r3, r3, #7
   83938:	f002 0201 	and.w	r2, r2, #1
   8393c:	18e0      	adds	r0, r4, r3
   8393e:	f04f 0e05 	mov.w	lr, #5
   83942:	431a      	orrs	r2, r3
   83944:	2b0f      	cmp	r3, #15
   83946:	6062      	str	r2, [r4, #4]
   83948:	f8c0 e004 	str.w	lr, [r0, #4]
   8394c:	f8c0 e008 	str.w	lr, [r0, #8]
   83950:	f200 811c 	bhi.w	83b8c <_malloc_r+0x50c>
   83954:	4b1d      	ldr	r3, [pc, #116]	; (839cc <_malloc_r+0x34c>)
   83956:	68bc      	ldr	r4, [r7, #8]
   83958:	681a      	ldr	r2, [r3, #0]
   8395a:	4291      	cmp	r1, r2
   8395c:	bf88      	it	hi
   8395e:	6019      	strhi	r1, [r3, #0]
   83960:	4b1b      	ldr	r3, [pc, #108]	; (839d0 <_malloc_r+0x350>)
   83962:	681a      	ldr	r2, [r3, #0]
   83964:	4291      	cmp	r1, r2
   83966:	6862      	ldr	r2, [r4, #4]
   83968:	bf88      	it	hi
   8396a:	6019      	strhi	r1, [r3, #0]
   8396c:	f022 0203 	bic.w	r2, r2, #3
   83970:	4295      	cmp	r5, r2
   83972:	eba2 0305 	sub.w	r3, r2, r5
   83976:	d801      	bhi.n	8397c <_malloc_r+0x2fc>
   83978:	2b0f      	cmp	r3, #15
   8397a:	dc04      	bgt.n	83986 <_malloc_r+0x306>
   8397c:	4630      	mov	r0, r6
   8397e:	f000 f92d 	bl	83bdc <__malloc_unlock>
   83982:	2400      	movs	r4, #0
   83984:	e745      	b.n	83812 <_malloc_r+0x192>
   83986:	f045 0201 	orr.w	r2, r5, #1
   8398a:	f043 0301 	orr.w	r3, r3, #1
   8398e:	4425      	add	r5, r4
   83990:	6062      	str	r2, [r4, #4]
   83992:	4630      	mov	r0, r6
   83994:	60bd      	str	r5, [r7, #8]
   83996:	3408      	adds	r4, #8
   83998:	606b      	str	r3, [r5, #4]
   8399a:	f000 f91f 	bl	83bdc <__malloc_unlock>
   8399e:	4620      	mov	r0, r4
   839a0:	b003      	add	sp, #12
   839a2:	e8bd 8ff0 	ldmia.w	sp!, {r4, r5, r6, r7, r8, r9, sl, fp, pc}
   839a6:	2b14      	cmp	r3, #20
   839a8:	d971      	bls.n	83a8e <_malloc_r+0x40e>
   839aa:	2b54      	cmp	r3, #84	; 0x54
   839ac:	f200 80a4 	bhi.w	83af8 <_malloc_r+0x478>
   839b0:	0b28      	lsrs	r0, r5, #12
   839b2:	f100 0e6f 	add.w	lr, r0, #111	; 0x6f
   839b6:	ea4f 014e 	mov.w	r1, lr, lsl #1
   839ba:	306e      	adds	r0, #110	; 0x6e
   839bc:	e682      	b.n	836c4 <_malloc_r+0x44>
   839be:	bf00      	nop
   839c0:	20070434 	.word	0x20070434
   839c4:	20070c9c 	.word	0x20070c9c
   839c8:	20070ca0 	.word	0x20070ca0
   839cc:	20070c98 	.word	0x20070c98
   839d0:	20070c94 	.word	0x20070c94
   839d4:	20070840 	.word	0x20070840
   839d8:	0a5a      	lsrs	r2, r3, #9
   839da:	2a04      	cmp	r2, #4
   839dc:	d95e      	bls.n	83a9c <_malloc_r+0x41c>
   839de:	2a14      	cmp	r2, #20
   839e0:	f200 80b3 	bhi.w	83b4a <_malloc_r+0x4ca>
   839e4:	f102 015c 	add.w	r1, r2, #92	; 0x5c
   839e8:	0049      	lsls	r1, r1, #1
   839ea:	325b      	adds	r2, #91	; 0x5b
   839ec:	eb07 0c81 	add.w	ip, r7, r1, lsl #2
   839f0:	f857 1021 	ldr.w	r1, [r7, r1, lsl #2]
   839f4:	f1ac 0c08 	sub.w	ip, ip, #8
   839f8:	458c      	cmp	ip, r1
   839fa:	f8df 81d8 	ldr.w	r8, [pc, #472]	; 83bd4 <_malloc_r+0x554>
   839fe:	f000 8088 	beq.w	83b12 <_malloc_r+0x492>
   83a02:	684a      	ldr	r2, [r1, #4]
   83a04:	f022 0203 	bic.w	r2, r2, #3
   83a08:	4293      	cmp	r3, r2
   83a0a:	d202      	bcs.n	83a12 <_malloc_r+0x392>
   83a0c:	6889      	ldr	r1, [r1, #8]
   83a0e:	458c      	cmp	ip, r1
   83a10:	d1f7      	bne.n	83a02 <_malloc_r+0x382>
   83a12:	f8d1 c00c 	ldr.w	ip, [r1, #12]
   83a16:	687a      	ldr	r2, [r7, #4]
   83a18:	f8c4 c00c 	str.w	ip, [r4, #12]
   83a1c:	60a1      	str	r1, [r4, #8]
   83a1e:	f8cc 4008 	str.w	r4, [ip, #8]
   83a22:	60cc      	str	r4, [r1, #12]
   83a24:	e696      	b.n	83754 <_malloc_r+0xd4>
   83a26:	f045 0701 	orr.w	r7, r5, #1
   83a2a:	f042 0301 	orr.w	r3, r2, #1
   83a2e:	4425      	add	r5, r4
   83a30:	6067      	str	r7, [r4, #4]
   83a32:	4630      	mov	r0, r6
   83a34:	614d      	str	r5, [r1, #20]
   83a36:	610d      	str	r5, [r1, #16]
   83a38:	f8c5 e00c 	str.w	lr, [r5, #12]
   83a3c:	f8c5 e008 	str.w	lr, [r5, #8]
   83a40:	606b      	str	r3, [r5, #4]
   83a42:	50aa      	str	r2, [r5, r2]
   83a44:	3408      	adds	r4, #8
   83a46:	f000 f8c9 	bl	83bdc <__malloc_unlock>
   83a4a:	e6e2      	b.n	83812 <_malloc_r+0x192>
   83a4c:	684a      	ldr	r2, [r1, #4]
   83a4e:	e681      	b.n	83754 <_malloc_r+0xd4>
   83a50:	f108 0801 	add.w	r8, r8, #1
   83a54:	f018 0f03 	tst.w	r8, #3
   83a58:	f10c 0c08 	add.w	ip, ip, #8
   83a5c:	f47f ae8c 	bne.w	83778 <_malloc_r+0xf8>
   83a60:	e030      	b.n	83ac4 <_malloc_r+0x444>
   83a62:	68dc      	ldr	r4, [r3, #12]
   83a64:	42a3      	cmp	r3, r4
   83a66:	bf08      	it	eq
   83a68:	3002      	addeq	r0, #2
   83a6a:	f43f ae40 	beq.w	836ee <_malloc_r+0x6e>
   83a6e:	e6c0      	b.n	837f2 <_malloc_r+0x172>
   83a70:	460c      	mov	r4, r1
   83a72:	440b      	add	r3, r1
   83a74:	685a      	ldr	r2, [r3, #4]
   83a76:	68c9      	ldr	r1, [r1, #12]
   83a78:	f854 5f08 	ldr.w	r5, [r4, #8]!
   83a7c:	f042 0201 	orr.w	r2, r2, #1
   83a80:	605a      	str	r2, [r3, #4]
   83a82:	4630      	mov	r0, r6
   83a84:	60e9      	str	r1, [r5, #12]
   83a86:	608d      	str	r5, [r1, #8]
   83a88:	f000 f8a8 	bl	83bdc <__malloc_unlock>
   83a8c:	e6c1      	b.n	83812 <_malloc_r+0x192>
   83a8e:	f103 0e5c 	add.w	lr, r3, #92	; 0x5c
   83a92:	f103 005b 	add.w	r0, r3, #91	; 0x5b
   83a96:	ea4f 014e 	mov.w	r1, lr, lsl #1
   83a9a:	e613      	b.n	836c4 <_malloc_r+0x44>
   83a9c:	099a      	lsrs	r2, r3, #6
   83a9e:	f102 0139 	add.w	r1, r2, #57	; 0x39
   83aa2:	0049      	lsls	r1, r1, #1
   83aa4:	3238      	adds	r2, #56	; 0x38
   83aa6:	e7a1      	b.n	839ec <_malloc_r+0x36c>
   83aa8:	42bc      	cmp	r4, r7
   83aaa:	4b4a      	ldr	r3, [pc, #296]	; (83bd4 <_malloc_r+0x554>)
   83aac:	f43f af00 	beq.w	838b0 <_malloc_r+0x230>
   83ab0:	689c      	ldr	r4, [r3, #8]
   83ab2:	6862      	ldr	r2, [r4, #4]
   83ab4:	f022 0203 	bic.w	r2, r2, #3
   83ab8:	e75a      	b.n	83970 <_malloc_r+0x2f0>
   83aba:	f859 3908 	ldr.w	r3, [r9], #-8
   83abe:	4599      	cmp	r9, r3
   83ac0:	f040 8082 	bne.w	83bc8 <_malloc_r+0x548>
   83ac4:	f010 0f03 	tst.w	r0, #3
   83ac8:	f100 30ff 	add.w	r0, r0, #4294967295
   83acc:	d1f5      	bne.n	83aba <_malloc_r+0x43a>
   83ace:	687b      	ldr	r3, [r7, #4]
   83ad0:	ea23 0304 	bic.w	r3, r3, r4
   83ad4:	607b      	str	r3, [r7, #4]
   83ad6:	0064      	lsls	r4, r4, #1
   83ad8:	429c      	cmp	r4, r3
   83ada:	f63f aebd 	bhi.w	83858 <_malloc_r+0x1d8>
   83ade:	2c00      	cmp	r4, #0
   83ae0:	f43f aeba 	beq.w	83858 <_malloc_r+0x1d8>
   83ae4:	421c      	tst	r4, r3
   83ae6:	4640      	mov	r0, r8
   83ae8:	f47f ae42 	bne.w	83770 <_malloc_r+0xf0>
   83aec:	0064      	lsls	r4, r4, #1
   83aee:	421c      	tst	r4, r3
   83af0:	f100 0004 	add.w	r0, r0, #4
   83af4:	d0fa      	beq.n	83aec <_malloc_r+0x46c>
   83af6:	e63b      	b.n	83770 <_malloc_r+0xf0>
   83af8:	f5b3 7faa 	cmp.w	r3, #340	; 0x154
   83afc:	d818      	bhi.n	83b30 <_malloc_r+0x4b0>
   83afe:	0be8      	lsrs	r0, r5, #15
   83b00:	f100 0e78 	add.w	lr, r0, #120	; 0x78
   83b04:	ea4f 014e 	mov.w	r1, lr, lsl #1
   83b08:	3077      	adds	r0, #119	; 0x77
   83b0a:	e5db      	b.n	836c4 <_malloc_r+0x44>
   83b0c:	f44f 5180 	mov.w	r1, #4096	; 0x1000
   83b10:	e6eb      	b.n	838ea <_malloc_r+0x26a>
   83b12:	2101      	movs	r1, #1
   83b14:	f8d8 3004 	ldr.w	r3, [r8, #4]
   83b18:	1092      	asrs	r2, r2, #2
   83b1a:	fa01 f202 	lsl.w	r2, r1, r2
   83b1e:	431a      	orrs	r2, r3
   83b20:	f8c8 2004 	str.w	r2, [r8, #4]
   83b24:	4661      	mov	r1, ip
   83b26:	e777      	b.n	83a18 <_malloc_r+0x398>
   83b28:	2301      	movs	r3, #1
   83b2a:	f8cb 3004 	str.w	r3, [fp, #4]
   83b2e:	e725      	b.n	8397c <_malloc_r+0x2fc>
   83b30:	f240 5254 	movw	r2, #1364	; 0x554
   83b34:	4293      	cmp	r3, r2
   83b36:	d820      	bhi.n	83b7a <_malloc_r+0x4fa>
   83b38:	0ca8      	lsrs	r0, r5, #18
   83b3a:	f100 0e7d 	add.w	lr, r0, #125	; 0x7d
   83b3e:	ea4f 014e 	mov.w	r1, lr, lsl #1
   83b42:	307c      	adds	r0, #124	; 0x7c
   83b44:	e5be      	b.n	836c4 <_malloc_r+0x44>
   83b46:	3210      	adds	r2, #16
   83b48:	e6a4      	b.n	83894 <_malloc_r+0x214>
   83b4a:	2a54      	cmp	r2, #84	; 0x54
   83b4c:	d826      	bhi.n	83b9c <_malloc_r+0x51c>
   83b4e:	0b1a      	lsrs	r2, r3, #12
   83b50:	f102 016f 	add.w	r1, r2, #111	; 0x6f
   83b54:	0049      	lsls	r1, r1, #1
   83b56:	326e      	adds	r2, #110	; 0x6e
   83b58:	e748      	b.n	839ec <_malloc_r+0x36c>
   83b5a:	68bc      	ldr	r4, [r7, #8]
   83b5c:	6862      	ldr	r2, [r4, #4]
   83b5e:	f022 0203 	bic.w	r2, r2, #3
   83b62:	e705      	b.n	83970 <_malloc_r+0x2f0>
   83b64:	f3ca 000b 	ubfx	r0, sl, #0, #12
   83b68:	2800      	cmp	r0, #0
   83b6a:	f47f aea8 	bne.w	838be <_malloc_r+0x23e>
   83b6e:	4442      	add	r2, r8
   83b70:	68bb      	ldr	r3, [r7, #8]
   83b72:	f042 0201 	orr.w	r2, r2, #1
   83b76:	605a      	str	r2, [r3, #4]
   83b78:	e6ec      	b.n	83954 <_malloc_r+0x2d4>
   83b7a:	21fe      	movs	r1, #254	; 0xfe
   83b7c:	f04f 0e7f 	mov.w	lr, #127	; 0x7f
   83b80:	207e      	movs	r0, #126	; 0x7e
   83b82:	e59f      	b.n	836c4 <_malloc_r+0x44>
   83b84:	2201      	movs	r2, #1
   83b86:	f04f 0900 	mov.w	r9, #0
   83b8a:	e6c1      	b.n	83910 <_malloc_r+0x290>
   83b8c:	f104 0108 	add.w	r1, r4, #8
   83b90:	4630      	mov	r0, r6
   83b92:	f7ff fc2d 	bl	833f0 <_free_r>
   83b96:	f8d9 1000 	ldr.w	r1, [r9]
   83b9a:	e6db      	b.n	83954 <_malloc_r+0x2d4>
   83b9c:	f5b2 7faa 	cmp.w	r2, #340	; 0x154
   83ba0:	d805      	bhi.n	83bae <_malloc_r+0x52e>
   83ba2:	0bda      	lsrs	r2, r3, #15
   83ba4:	f102 0178 	add.w	r1, r2, #120	; 0x78
   83ba8:	0049      	lsls	r1, r1, #1
   83baa:	3277      	adds	r2, #119	; 0x77
   83bac:	e71e      	b.n	839ec <_malloc_r+0x36c>
   83bae:	f240 5154 	movw	r1, #1364	; 0x554
   83bb2:	428a      	cmp	r2, r1
   83bb4:	d805      	bhi.n	83bc2 <_malloc_r+0x542>
   83bb6:	0c9a      	lsrs	r2, r3, #18
   83bb8:	f102 017d 	add.w	r1, r2, #125	; 0x7d
   83bbc:	0049      	lsls	r1, r1, #1
   83bbe:	327c      	adds	r2, #124	; 0x7c
   83bc0:	e714      	b.n	839ec <_malloc_r+0x36c>
   83bc2:	21fe      	movs	r1, #254	; 0xfe
   83bc4:	227e      	movs	r2, #126	; 0x7e
   83bc6:	e711      	b.n	839ec <_malloc_r+0x36c>
   83bc8:	687b      	ldr	r3, [r7, #4]
   83bca:	e784      	b.n	83ad6 <_malloc_r+0x456>
   83bcc:	08e8      	lsrs	r0, r5, #3
   83bce:	1c43      	adds	r3, r0, #1
   83bd0:	005b      	lsls	r3, r3, #1
   83bd2:	e605      	b.n	837e0 <_malloc_r+0x160>
   83bd4:	20070434 	.word	0x20070434

00083bd8 <__malloc_lock>:
   83bd8:	4770      	bx	lr
   83bda:	bf00      	nop

00083bdc <__malloc_unlock>:
   83bdc:	4770      	bx	lr
   83bde:	bf00      	nop

00083be0 <_sbrk_r>:
   83be0:	b538      	push	{r3, r4, r5, lr}
   83be2:	4c07      	ldr	r4, [pc, #28]	; (83c00 <_sbrk_r+0x20>)
   83be4:	2300      	movs	r3, #0
   83be6:	4605      	mov	r5, r0
   83be8:	4608      	mov	r0, r1
   83bea:	6023      	str	r3, [r4, #0]
   83bec:	f7fe fbbc 	bl	82368 <_sbrk>
   83bf0:	1c43      	adds	r3, r0, #1
   83bf2:	d000      	beq.n	83bf6 <_sbrk_r+0x16>
   83bf4:	bd38      	pop	{r3, r4, r5, pc}
   83bf6:	6823      	ldr	r3, [r4, #0]
   83bf8:	2b00      	cmp	r3, #0
   83bfa:	d0fb      	beq.n	83bf4 <_sbrk_r+0x14>
   83bfc:	602b      	str	r3, [r5, #0]
   83bfe:	bd38      	pop	{r3, r4, r5, pc}
   83c00:	20070cdc 	.word	0x20070cdc

00083c04 <__sread>:
   83c04:	b510      	push	{r4, lr}
   83c06:	460c      	mov	r4, r1
   83c08:	f9b1 100e 	ldrsh.w	r1, [r1, #14]
   83c0c:	f000 f924 	bl	83e58 <_read_r>
   83c10:	2800      	cmp	r0, #0
   83c12:	db03      	blt.n	83c1c <__sread+0x18>
   83c14:	6d23      	ldr	r3, [r4, #80]	; 0x50
   83c16:	4403      	add	r3, r0
   83c18:	6523      	str	r3, [r4, #80]	; 0x50
   83c1a:	bd10      	pop	{r4, pc}
   83c1c:	89a3      	ldrh	r3, [r4, #12]
   83c1e:	f423 5380 	bic.w	r3, r3, #4096	; 0x1000
   83c22:	81a3      	strh	r3, [r4, #12]
   83c24:	bd10      	pop	{r4, pc}
   83c26:	bf00      	nop

00083c28 <__swrite>:
   83c28:	e92d 41f0 	stmdb	sp!, {r4, r5, r6, r7, r8, lr}
   83c2c:	460c      	mov	r4, r1
   83c2e:	f9b1 100c 	ldrsh.w	r1, [r1, #12]
   83c32:	461f      	mov	r7, r3
   83c34:	05cb      	lsls	r3, r1, #23
   83c36:	4616      	mov	r6, r2
   83c38:	4605      	mov	r5, r0
   83c3a:	d507      	bpl.n	83c4c <__swrite+0x24>
   83c3c:	f9b4 100e 	ldrsh.w	r1, [r4, #14]
   83c40:	2302      	movs	r3, #2
   83c42:	2200      	movs	r2, #0
   83c44:	f000 f8f2 	bl	83e2c <_lseek_r>
   83c48:	f9b4 100c 	ldrsh.w	r1, [r4, #12]
   83c4c:	f421 5180 	bic.w	r1, r1, #4096	; 0x1000
   83c50:	81a1      	strh	r1, [r4, #12]
   83c52:	463b      	mov	r3, r7
   83c54:	4632      	mov	r2, r6
   83c56:	f9b4 100e 	ldrsh.w	r1, [r4, #14]
   83c5a:	4628      	mov	r0, r5
   83c5c:	e8bd 41f0 	ldmia.w	sp!, {r4, r5, r6, r7, r8, lr}
   83c60:	f000 b814 	b.w	83c8c <_write_r>

00083c64 <__sseek>:
   83c64:	b510      	push	{r4, lr}
   83c66:	460c      	mov	r4, r1
   83c68:	f9b1 100e 	ldrsh.w	r1, [r1, #14]
   83c6c:	f000 f8de 	bl	83e2c <_lseek_r>
   83c70:	89a3      	ldrh	r3, [r4, #12]
   83c72:	1c42      	adds	r2, r0, #1
   83c74:	bf0e      	itee	eq
   83c76:	f423 5380 	biceq.w	r3, r3, #4096	; 0x1000
   83c7a:	f443 5380 	orrne.w	r3, r3, #4096	; 0x1000
   83c7e:	6520      	strne	r0, [r4, #80]	; 0x50
   83c80:	81a3      	strh	r3, [r4, #12]
   83c82:	bd10      	pop	{r4, pc}

00083c84 <__sclose>:
   83c84:	f9b1 100e 	ldrsh.w	r1, [r1, #14]
   83c88:	f000 b868 	b.w	83d5c <_close_r>

00083c8c <_write_r>:
   83c8c:	b570      	push	{r4, r5, r6, lr}
   83c8e:	460d      	mov	r5, r1
   83c90:	4c08      	ldr	r4, [pc, #32]	; (83cb4 <_write_r+0x28>)
   83c92:	4611      	mov	r1, r2
   83c94:	4606      	mov	r6, r0
   83c96:	461a      	mov	r2, r3
   83c98:	4628      	mov	r0, r5
   83c9a:	2300      	movs	r3, #0
   83c9c:	6023      	str	r3, [r4, #0]
   83c9e:	f7fc fa75 	bl	8018c <_write>
   83ca2:	1c43      	adds	r3, r0, #1
   83ca4:	d000      	beq.n	83ca8 <_write_r+0x1c>
   83ca6:	bd70      	pop	{r4, r5, r6, pc}
   83ca8:	6823      	ldr	r3, [r4, #0]
   83caa:	2b00      	cmp	r3, #0
   83cac:	d0fb      	beq.n	83ca6 <_write_r+0x1a>
   83cae:	6033      	str	r3, [r6, #0]
   83cb0:	bd70      	pop	{r4, r5, r6, pc}
   83cb2:	bf00      	nop
   83cb4:	20070cdc 	.word	0x20070cdc

00083cb8 <__register_exitproc>:
   83cb8:	e92d 47f0 	stmdb	sp!, {r4, r5, r6, r7, r8, r9, sl, lr}
   83cbc:	4c25      	ldr	r4, [pc, #148]	; (83d54 <__register_exitproc+0x9c>)
   83cbe:	4606      	mov	r6, r0
   83cc0:	6825      	ldr	r5, [r4, #0]
   83cc2:	4688      	mov	r8, r1
   83cc4:	f8d5 4148 	ldr.w	r4, [r5, #328]	; 0x148
   83cc8:	4692      	mov	sl, r2
   83cca:	4699      	mov	r9, r3
   83ccc:	b3c4      	cbz	r4, 83d40 <__register_exitproc+0x88>
   83cce:	6860      	ldr	r0, [r4, #4]
   83cd0:	281f      	cmp	r0, #31
   83cd2:	dc17      	bgt.n	83d04 <__register_exitproc+0x4c>
   83cd4:	1c41      	adds	r1, r0, #1
   83cd6:	b176      	cbz	r6, 83cf6 <__register_exitproc+0x3e>
   83cd8:	eb04 0380 	add.w	r3, r4, r0, lsl #2
   83cdc:	f8c3 a088 	str.w	sl, [r3, #136]	; 0x88
   83ce0:	f8d4 5188 	ldr.w	r5, [r4, #392]	; 0x188
   83ce4:	2201      	movs	r2, #1
   83ce6:	4082      	lsls	r2, r0
   83ce8:	4315      	orrs	r5, r2
   83cea:	2e02      	cmp	r6, #2
   83cec:	f8c4 5188 	str.w	r5, [r4, #392]	; 0x188
   83cf0:	f8c3 9108 	str.w	r9, [r3, #264]	; 0x108
   83cf4:	d01e      	beq.n	83d34 <__register_exitproc+0x7c>
   83cf6:	1c83      	adds	r3, r0, #2
   83cf8:	6061      	str	r1, [r4, #4]
   83cfa:	2000      	movs	r0, #0
   83cfc:	f844 8023 	str.w	r8, [r4, r3, lsl #2]
   83d00:	e8bd 87f0 	ldmia.w	sp!, {r4, r5, r6, r7, r8, r9, sl, pc}
   83d04:	4b14      	ldr	r3, [pc, #80]	; (83d58 <__register_exitproc+0xa0>)
   83d06:	b303      	cbz	r3, 83d4a <__register_exitproc+0x92>
   83d08:	f44f 70c8 	mov.w	r0, #400	; 0x190
   83d0c:	f7ff fcb0 	bl	83670 <malloc>
   83d10:	4604      	mov	r4, r0
   83d12:	b1d0      	cbz	r0, 83d4a <__register_exitproc+0x92>
   83d14:	f8d5 3148 	ldr.w	r3, [r5, #328]	; 0x148
   83d18:	2700      	movs	r7, #0
   83d1a:	e884 0088 	stmia.w	r4, {r3, r7}
   83d1e:	4638      	mov	r0, r7
   83d20:	f8c5 4148 	str.w	r4, [r5, #328]	; 0x148
   83d24:	2101      	movs	r1, #1
   83d26:	f8c4 7188 	str.w	r7, [r4, #392]	; 0x188
   83d2a:	f8c4 718c 	str.w	r7, [r4, #396]	; 0x18c
   83d2e:	2e00      	cmp	r6, #0
   83d30:	d0e1      	beq.n	83cf6 <__register_exitproc+0x3e>
   83d32:	e7d1      	b.n	83cd8 <__register_exitproc+0x20>
   83d34:	f8d4 318c 	ldr.w	r3, [r4, #396]	; 0x18c
   83d38:	431a      	orrs	r2, r3
   83d3a:	f8c4 218c 	str.w	r2, [r4, #396]	; 0x18c
   83d3e:	e7da      	b.n	83cf6 <__register_exitproc+0x3e>
   83d40:	f505 74a6 	add.w	r4, r5, #332	; 0x14c
   83d44:	f8c5 4148 	str.w	r4, [r5, #328]	; 0x148
   83d48:	e7c1      	b.n	83cce <__register_exitproc+0x16>
   83d4a:	f04f 30ff 	mov.w	r0, #4294967295
   83d4e:	e8bd 87f0 	ldmia.w	sp!, {r4, r5, r6, r7, r8, r9, sl, pc}
   83d52:	bf00      	nop
   83d54:	00083eb4 	.word	0x00083eb4
   83d58:	00083671 	.word	0x00083671

00083d5c <_close_r>:
   83d5c:	b538      	push	{r3, r4, r5, lr}
   83d5e:	4c07      	ldr	r4, [pc, #28]	; (83d7c <_close_r+0x20>)
   83d60:	2300      	movs	r3, #0
   83d62:	4605      	mov	r5, r0
   83d64:	4608      	mov	r0, r1
   83d66:	6023      	str	r3, [r4, #0]
   83d68:	f7fe fb0e 	bl	82388 <_close>
   83d6c:	1c43      	adds	r3, r0, #1
   83d6e:	d000      	beq.n	83d72 <_close_r+0x16>
   83d70:	bd38      	pop	{r3, r4, r5, pc}
   83d72:	6823      	ldr	r3, [r4, #0]
   83d74:	2b00      	cmp	r3, #0
   83d76:	d0fb      	beq.n	83d70 <_close_r+0x14>
   83d78:	602b      	str	r3, [r5, #0]
   83d7a:	bd38      	pop	{r3, r4, r5, pc}
   83d7c:	20070cdc 	.word	0x20070cdc

00083d80 <_fclose_r>:
   83d80:	2900      	cmp	r1, #0
   83d82:	d03d      	beq.n	83e00 <_fclose_r+0x80>
   83d84:	b570      	push	{r4, r5, r6, lr}
   83d86:	4605      	mov	r5, r0
   83d88:	460c      	mov	r4, r1
   83d8a:	b108      	cbz	r0, 83d90 <_fclose_r+0x10>
   83d8c:	6b83      	ldr	r3, [r0, #56]	; 0x38
   83d8e:	b37b      	cbz	r3, 83df0 <_fclose_r+0x70>
   83d90:	f9b4 300c 	ldrsh.w	r3, [r4, #12]
   83d94:	b90b      	cbnz	r3, 83d9a <_fclose_r+0x1a>
   83d96:	2000      	movs	r0, #0
   83d98:	bd70      	pop	{r4, r5, r6, pc}
   83d9a:	4621      	mov	r1, r4
   83d9c:	4628      	mov	r0, r5
   83d9e:	f7ff f983 	bl	830a8 <__sflush_r>
   83da2:	6ae3      	ldr	r3, [r4, #44]	; 0x2c
   83da4:	4606      	mov	r6, r0
   83da6:	b133      	cbz	r3, 83db6 <_fclose_r+0x36>
   83da8:	69e1      	ldr	r1, [r4, #28]
   83daa:	4628      	mov	r0, r5
   83dac:	4798      	blx	r3
   83dae:	2800      	cmp	r0, #0
   83db0:	bfb8      	it	lt
   83db2:	f04f 36ff 	movlt.w	r6, #4294967295
   83db6:	89a3      	ldrh	r3, [r4, #12]
   83db8:	061b      	lsls	r3, r3, #24
   83dba:	d41c      	bmi.n	83df6 <_fclose_r+0x76>
   83dbc:	6b21      	ldr	r1, [r4, #48]	; 0x30
   83dbe:	b141      	cbz	r1, 83dd2 <_fclose_r+0x52>
   83dc0:	f104 0340 	add.w	r3, r4, #64	; 0x40
   83dc4:	4299      	cmp	r1, r3
   83dc6:	d002      	beq.n	83dce <_fclose_r+0x4e>
   83dc8:	4628      	mov	r0, r5
   83dca:	f7ff fb11 	bl	833f0 <_free_r>
   83dce:	2300      	movs	r3, #0
   83dd0:	6323      	str	r3, [r4, #48]	; 0x30
   83dd2:	6c61      	ldr	r1, [r4, #68]	; 0x44
   83dd4:	b121      	cbz	r1, 83de0 <_fclose_r+0x60>
   83dd6:	4628      	mov	r0, r5
   83dd8:	f7ff fb0a 	bl	833f0 <_free_r>
   83ddc:	2300      	movs	r3, #0
   83dde:	6463      	str	r3, [r4, #68]	; 0x44
   83de0:	f7ff faa0 	bl	83324 <__sfp_lock_acquire>
   83de4:	2300      	movs	r3, #0
   83de6:	81a3      	strh	r3, [r4, #12]
   83de8:	f7ff fa9e 	bl	83328 <__sfp_lock_release>
   83dec:	4630      	mov	r0, r6
   83dee:	bd70      	pop	{r4, r5, r6, pc}
   83df0:	f7ff fa92 	bl	83318 <__sinit>
   83df4:	e7cc      	b.n	83d90 <_fclose_r+0x10>
   83df6:	6921      	ldr	r1, [r4, #16]
   83df8:	4628      	mov	r0, r5
   83dfa:	f7ff faf9 	bl	833f0 <_free_r>
   83dfe:	e7dd      	b.n	83dbc <_fclose_r+0x3c>
   83e00:	2000      	movs	r0, #0
   83e02:	4770      	bx	lr

00083e04 <_fstat_r>:
   83e04:	b538      	push	{r3, r4, r5, lr}
   83e06:	460b      	mov	r3, r1
   83e08:	4c07      	ldr	r4, [pc, #28]	; (83e28 <_fstat_r+0x24>)
   83e0a:	4605      	mov	r5, r0
   83e0c:	4611      	mov	r1, r2
   83e0e:	4618      	mov	r0, r3
   83e10:	2300      	movs	r3, #0
   83e12:	6023      	str	r3, [r4, #0]
   83e14:	f7fe fabc 	bl	82390 <_fstat>
   83e18:	1c43      	adds	r3, r0, #1
   83e1a:	d000      	beq.n	83e1e <_fstat_r+0x1a>
   83e1c:	bd38      	pop	{r3, r4, r5, pc}
   83e1e:	6823      	ldr	r3, [r4, #0]
   83e20:	2b00      	cmp	r3, #0
   83e22:	d0fb      	beq.n	83e1c <_fstat_r+0x18>
   83e24:	602b      	str	r3, [r5, #0]
   83e26:	bd38      	pop	{r3, r4, r5, pc}
   83e28:	20070cdc 	.word	0x20070cdc

00083e2c <_lseek_r>:
   83e2c:	b570      	push	{r4, r5, r6, lr}
   83e2e:	460d      	mov	r5, r1
   83e30:	4c08      	ldr	r4, [pc, #32]	; (83e54 <_lseek_r+0x28>)
   83e32:	4611      	mov	r1, r2
   83e34:	4606      	mov	r6, r0
   83e36:	461a      	mov	r2, r3
   83e38:	4628      	mov	r0, r5
   83e3a:	2300      	movs	r3, #0
   83e3c:	6023      	str	r3, [r4, #0]
   83e3e:	f7fe faad 	bl	8239c <_lseek>
   83e42:	1c43      	adds	r3, r0, #1
   83e44:	d000      	beq.n	83e48 <_lseek_r+0x1c>
   83e46:	bd70      	pop	{r4, r5, r6, pc}
   83e48:	6823      	ldr	r3, [r4, #0]
   83e4a:	2b00      	cmp	r3, #0
   83e4c:	d0fb      	beq.n	83e46 <_lseek_r+0x1a>
   83e4e:	6033      	str	r3, [r6, #0]
   83e50:	bd70      	pop	{r4, r5, r6, pc}
   83e52:	bf00      	nop
   83e54:	20070cdc 	.word	0x20070cdc

00083e58 <_read_r>:
   83e58:	b570      	push	{r4, r5, r6, lr}
   83e5a:	460d      	mov	r5, r1
   83e5c:	4c08      	ldr	r4, [pc, #32]	; (83e80 <_read_r+0x28>)
   83e5e:	4611      	mov	r1, r2
   83e60:	4606      	mov	r6, r0
   83e62:	461a      	mov	r2, r3
   83e64:	4628      	mov	r0, r5
   83e66:	2300      	movs	r3, #0
   83e68:	6023      	str	r3, [r4, #0]
   83e6a:	f7fc f971 	bl	80150 <_read>
   83e6e:	1c43      	adds	r3, r0, #1
   83e70:	d000      	beq.n	83e74 <_read_r+0x1c>
   83e72:	bd70      	pop	{r4, r5, r6, pc}
   83e74:	6823      	ldr	r3, [r4, #0]
   83e76:	2b00      	cmp	r3, #0
   83e78:	d0fb      	beq.n	83e72 <_read_r+0x1a>
   83e7a:	6033      	str	r3, [r6, #0]
   83e7c:	bd70      	pop	{r4, r5, r6, pc}
   83e7e:	bf00      	nop
   83e80:	20070cdc 	.word	0x20070cdc
   83e84:	0c040800 	.word	0x0c040800
   83e88:	0e060a02 	.word	0x0e060a02
   83e8c:	0d050901 	.word	0x0d050901
   83e90:	0f070b03 	.word	0x0f070b03
   83e94:	00207a48 	.word	0x00207a48
   83e98:	6e614234 	.word	0x6e614234
   83e9c:	00000064 	.word	0x00000064
   83ea0:	6e614231 	.word	0x6e614231
   83ea4:	00002064 	.word	0x00002064
   83ea8:	6f745331 	.word	0x6f745331
   83eac:	00002070 	.word	0x00002070
   83eb0:	00000043 	.word	0x00000043

00083eb4 <_global_impure_ptr>:
   83eb4:	20070008                                ... 

00083eb8 <_init>:
   83eb8:	b5f8      	push	{r3, r4, r5, r6, r7, lr}
   83eba:	bf00      	nop
   83ebc:	bcf8      	pop	{r3, r4, r5, r6, r7}
   83ebe:	bc08      	pop	{r3}
   83ec0:	469e      	mov	lr, r3
   83ec2:	4770      	bx	lr

00083ec4 <__init_array_start>:
   83ec4:	00083089 	.word	0x00083089

00083ec8 <__frame_dummy_init_array_entry>:
   83ec8:	00080119                                ....

00083ecc <_fini>:
   83ecc:	b5f8      	push	{r3, r4, r5, r6, r7, lr}
   83ece:	bf00      	nop
   83ed0:	bcf8      	pop	{r3, r4, r5, r6, r7}
   83ed2:	bc08      	pop	{r3}
   83ed4:	469e      	mov	lr, r3
   83ed6:	4770      	bx	lr

00083ed8 <__fini_array_start>:
   83ed8:	000800f5 	.word	0x000800f5
